
instr.o:     file format elf32-i386


Disassembly of section .text:

00000000 <GetOffsetType>:
       0:	55                   	push   %ebp
       1:	89 e5                	mov    %esp,%ebp
       3:	83 7d 08 00          	cmpl   $0x0,0x8(%ebp)
       7:	78 0d                	js     16 <GetOffsetType+0x16>
       9:	83 7d 08 7f          	cmpl   $0x7f,0x8(%ebp)
       d:	7f 07                	jg     16 <GetOffsetType+0x16>
       f:	b8 01 00 00 00       	mov    $0x1,%eax
      14:	eb 1b                	jmp    31 <GetOffsetType+0x31>
      16:	83 7d 08 7f          	cmpl   $0x7f,0x8(%ebp)
      1a:	7e 10                	jle    2c <GetOffsetType+0x2c>
      1c:	81 7d 08 00 80 00 00 	cmpl   $0x8000,0x8(%ebp)
      23:	7f 07                	jg     2c <GetOffsetType+0x2c>
      25:	b8 02 00 00 00       	mov    $0x2,%eax
      2a:	eb 05                	jmp    31 <GetOffsetType+0x31>
      2c:	b8 03 00 00 00       	mov    $0x3,%eax
      31:	5d                   	pop    %ebp
      32:	c3                   	ret    

00000033 <GetOprandType>:
      33:	55                   	push   %ebp
      34:	89 e5                	mov    %esp,%ebp
      36:	83 ec 28             	sub    $0x28,%esp
      39:	e8 fc ff ff ff       	call   3a <GetOprandType+0x7>
      3e:	c6 45 f7 00          	movb   $0x0,-0x9(%ebp)
      42:	c6 45 f6 00          	movb   $0x0,-0xa(%ebp)
      46:	c6 45 f5 00          	movb   $0x0,-0xb(%ebp)
      4a:	c6 45 e7 01          	movb   $0x1,-0x19(%ebp)
      4e:	c7 45 ec ff ff ff ff 	movl   $0xffffffff,-0x14(%ebp)
      55:	e8 fc ff ff ff       	call   56 <GetOprandType+0x23>
      5a:	89 45 f0             	mov    %eax,-0x10(%ebp)
      5d:	83 7d f0 14          	cmpl   $0x14,-0x10(%ebp)
      61:	74 34                	je     97 <GetOprandType+0x64>
      63:	83 7d f0 01          	cmpl   $0x1,-0x10(%ebp)
      67:	74 2e                	je     97 <GetOprandType+0x64>
      69:	83 7d f0 09          	cmpl   $0x9,-0x10(%ebp)
      6d:	74 28                	je     97 <GetOprandType+0x64>
      6f:	83 7d f0 07          	cmpl   $0x7,-0x10(%ebp)
      73:	74 22                	je     97 <GetOprandType+0x64>
      75:	83 7d f0 01          	cmpl   $0x1,-0x10(%ebp)
      79:	74 1c                	je     97 <GetOprandType+0x64>
      7b:	83 7d f0 15          	cmpl   $0x15,-0x10(%ebp)
      7f:	74 16                	je     97 <GetOprandType+0x64>
      81:	83 7d f0 13          	cmpl   $0x13,-0x10(%ebp)
      85:	74 10                	je     97 <GetOprandType+0x64>
      87:	83 7d f0 16          	cmpl   $0x16,-0x10(%ebp)
      8b:	74 0a                	je     97 <GetOprandType+0x64>
      8d:	83 7d f0 0a          	cmpl   $0xa,-0x10(%ebp)
      91:	0f 85 b5 00 00 00    	jne    14c <GetOprandType+0x119>
      97:	80 7d f7 00          	cmpb   $0x0,-0x9(%ebp)
      9b:	75 0a                	jne    a7 <GetOprandType+0x74>
      9d:	83 7d f0 07          	cmpl   $0x7,-0x10(%ebp)
      a1:	0f 84 a8 00 00 00    	je     14f <GetOprandType+0x11c>
      a7:	83 7d f0 13          	cmpl   $0x13,-0x10(%ebp)
      ab:	75 6e                	jne    11b <GetOprandType+0xe8>
      ad:	e8 fc ff ff ff       	call   ae <GetOprandType+0x7b>
      b2:	89 45 e0             	mov    %eax,-0x20(%ebp)
      b5:	83 ec 0c             	sub    $0xc,%esp
      b8:	ff 75 e0             	pushl  -0x20(%ebp)
      bb:	e8 fc ff ff ff       	call   bc <GetOprandType+0x89>
      c0:	83 c4 10             	add    $0x10,%esp
      c3:	89 45 dc             	mov    %eax,-0x24(%ebp)
      c6:	83 7d dc 4a          	cmpl   $0x4a,-0x24(%ebp)
      ca:	0f 85 82 00 00 00    	jne    152 <GetOprandType+0x11f>
      d0:	83 ec 08             	sub    $0x8,%esp
      d3:	68 00 00 00 00       	push   $0x0
      d8:	ff 75 e0             	pushl  -0x20(%ebp)
      db:	e8 fc ff ff ff       	call   dc <GetOprandType+0xa9>
      e0:	83 c4 10             	add    $0x10,%esp
      e3:	85 c0                	test   %eax,%eax
      e5:	75 34                	jne    11b <GetOprandType+0xe8>
      e7:	e8 fc ff ff ff       	call   e8 <GetOprandType+0xb5>
      ec:	89 45 f0             	mov    %eax,-0x10(%ebp)
      ef:	83 7d f0 09          	cmpl   $0x9,-0x10(%ebp)
      f3:	75 26                	jne    11b <GetOprandType+0xe8>
      f5:	e8 fc ff ff ff       	call   f6 <GetOprandType+0xc3>
      fa:	89 45 f0             	mov    %eax,-0x10(%ebp)
      fd:	83 7d f0 00          	cmpl   $0x0,-0x10(%ebp)
     101:	75 18                	jne    11b <GetOprandType+0xe8>
     103:	e8 fc ff ff ff       	call   104 <GetOprandType+0xd1>
     108:	89 45 f0             	mov    %eax,-0x10(%ebp)
     10b:	83 7d f0 0a          	cmpl   $0xa,-0x10(%ebp)
     10f:	75 0a                	jne    11b <GetOprandType+0xe8>
     111:	b8 06 00 00 00       	mov    $0x6,%eax
     116:	e9 c2 00 00 00       	jmp    1dd <GetOprandType+0x1aa>
     11b:	83 7d f0 09          	cmpl   $0x9,-0x10(%ebp)
     11f:	75 04                	jne    125 <GetOprandType+0xf2>
     121:	c6 45 f7 01          	movb   $0x1,-0x9(%ebp)
     125:	83 7d f0 0a          	cmpl   $0xa,-0x10(%ebp)
     129:	75 06                	jne    131 <GetOprandType+0xfe>
     12b:	c6 45 f6 01          	movb   $0x1,-0xa(%ebp)
     12f:	eb 22                	jmp    153 <GetOprandType+0x120>
     131:	83 7d f0 07          	cmpl   $0x7,-0x10(%ebp)
     135:	75 0a                	jne    141 <GetOprandType+0x10e>
     137:	0f b6 45 f5          	movzbl -0xb(%ebp),%eax
     13b:	83 c0 01             	add    $0x1,%eax
     13e:	88 45 f5             	mov    %al,-0xb(%ebp)
     141:	8b 45 f0             	mov    -0x10(%ebp),%eax
     144:	89 45 ec             	mov    %eax,-0x14(%ebp)
     147:	e9 09 ff ff ff       	jmp    55 <GetOprandType+0x22>
     14c:	90                   	nop
     14d:	eb 04                	jmp    153 <GetOprandType+0x120>
     14f:	90                   	nop
     150:	eb 01                	jmp    153 <GetOprandType+0x120>
     152:	90                   	nop
     153:	0f b6 45 f7          	movzbl -0x9(%ebp),%eax
     157:	22 45 f6             	and    -0xa(%ebp),%al
     15a:	84 c0                	test   %al,%al
     15c:	74 16                	je     174 <GetOprandType+0x141>
     15e:	c7 45 e8 02 00 00 00 	movl   $0x2,-0x18(%ebp)
     165:	80 7d f5 02          	cmpb   $0x2,-0xb(%ebp)
     169:	75 43                	jne    1ae <GetOprandType+0x17b>
     16b:	c7 45 e8 01 00 00 00 	movl   $0x1,-0x18(%ebp)
     172:	eb 3a                	jmp    1ae <GetOprandType+0x17b>
     174:	83 7d ec 01          	cmpl   $0x1,-0x14(%ebp)
     178:	75 09                	jne    183 <GetOprandType+0x150>
     17a:	c7 45 e8 03 00 00 00 	movl   $0x3,-0x18(%ebp)
     181:	eb 2b                	jmp    1ae <GetOprandType+0x17b>
     183:	83 7d ec 15          	cmpl   $0x15,-0x14(%ebp)
     187:	75 09                	jne    192 <GetOprandType+0x15f>
     189:	c7 45 e8 00 00 00 00 	movl   $0x0,-0x18(%ebp)
     190:	eb 1c                	jmp    1ae <GetOprandType+0x17b>
     192:	83 7d ec 14          	cmpl   $0x14,-0x14(%ebp)
     196:	75 09                	jne    1a1 <GetOprandType+0x16e>
     198:	c7 45 e8 04 00 00 00 	movl   $0x4,-0x18(%ebp)
     19f:	eb 0d                	jmp    1ae <GetOprandType+0x17b>
     1a1:	83 7d ec 13          	cmpl   $0x13,-0x14(%ebp)
     1a5:	75 07                	jne    1ae <GetOprandType+0x17b>
     1a7:	c7 45 e8 05 00 00 00 	movl   $0x5,-0x18(%ebp)
     1ae:	e8 fc ff ff ff       	call   1af <GetOprandType+0x17c>
     1b3:	83 7d ec ff          	cmpl   $0xffffffff,-0x14(%ebp)
     1b7:	75 21                	jne    1da <GetOprandType+0x1a7>
     1b9:	83 ec 04             	sub    $0x4,%esp
     1bc:	68 03 00 00 00       	push   $0x3
     1c1:	6a 7f                	push   $0x7f
     1c3:	68 0c 00 00 00       	push   $0xc
     1c8:	e8 fc ff ff ff       	call   1c9 <GetOprandType+0x196>
     1cd:	83 c4 10             	add    $0x10,%esp
     1d0:	83 ec 0c             	sub    $0xc,%esp
     1d3:	6a ff                	push   $0xffffffff
     1d5:	e8 fc ff ff ff       	call   1d6 <GetOprandType+0x1a3>
     1da:	8b 45 e8             	mov    -0x18(%ebp),%eax
     1dd:	c9                   	leave  
     1de:	c3                   	ret    

000001df <ParseSIB>:
     1df:	55                   	push   %ebp
     1e0:	89 e5                	mov    %esp,%ebp
     1e2:	83 ec 38             	sub    $0x38,%esp
     1e5:	c6 45 f7 00          	movb   $0x0,-0x9(%ebp)
     1e9:	e8 fc ff ff ff       	call   1ea <ParseSIB+0xb>
     1ee:	88 45 eb             	mov    %al,-0x15(%ebp)
     1f1:	80 7d eb 2a          	cmpb   $0x2a,-0x15(%ebp)
     1f5:	75 09                	jne    200 <ParseSIB+0x21>
     1f7:	c6 45 f7 01          	movb   $0x1,-0x9(%ebp)
     1fb:	e8 fc ff ff ff       	call   1fc <ParseSIB+0x1d>
     200:	e8 fc ff ff ff       	call   201 <ParseSIB+0x22>
     205:	e8 fc ff ff ff       	call   206 <ParseSIB+0x27>
     20a:	89 45 e4             	mov    %eax,-0x1c(%ebp)
     20d:	c7 45 f0 ff ff ff ff 	movl   $0xffffffff,-0x10(%ebp)
     214:	83 7d e4 01          	cmpl   $0x1,-0x1c(%ebp)
     218:	75 19                	jne    233 <ParseSIB+0x54>
     21a:	e8 fc ff ff ff       	call   21b <ParseSIB+0x3c>
     21f:	89 45 e0             	mov    %eax,-0x20(%ebp)
     222:	83 ec 0c             	sub    $0xc,%esp
     225:	ff 75 e0             	pushl  -0x20(%ebp)
     228:	e8 fc ff ff ff       	call   229 <ParseSIB+0x4a>
     22d:	83 c4 10             	add    $0x10,%esp
     230:	89 45 f0             	mov    %eax,-0x10(%ebp)
     233:	e8 fc ff ff ff       	call   234 <ParseSIB+0x55>
     238:	83 7d f0 ff          	cmpl   $0xffffffff,-0x10(%ebp)
     23c:	74 05                	je     243 <ParseSIB+0x64>
     23e:	e8 fc ff ff ff       	call   23f <ParseSIB+0x60>
     243:	83 ec 0c             	sub    $0xc,%esp
     246:	6a 08                	push   $0x8
     248:	e8 fc ff ff ff       	call   249 <ParseSIB+0x6a>
     24d:	83 c4 10             	add    $0x10,%esp
     250:	89 45 dc             	mov    %eax,-0x24(%ebp)
     253:	e8 fc ff ff ff       	call   254 <ParseSIB+0x75>
     258:	c7 45 ec 3d 00 00 00 	movl   $0x3d,-0x14(%ebp)
     25f:	80 7d f7 01          	cmpb   $0x1,-0x9(%ebp)
     263:	74 0d                	je     272 <ParseSIB+0x93>
     265:	e8 fc ff ff ff       	call   266 <ParseSIB+0x87>
     26a:	e8 fc ff ff ff       	call   26b <ParseSIB+0x8c>
     26f:	89 45 ec             	mov    %eax,-0x14(%ebp)
     272:	e8 fc ff ff ff       	call   273 <ParseSIB+0x94>
     277:	e8 fc ff ff ff       	call   278 <ParseSIB+0x99>
     27c:	e8 fc ff ff ff       	call   27d <ParseSIB+0x9e>
     281:	89 45 d8             	mov    %eax,-0x28(%ebp)
     284:	e8 fc ff ff ff       	call   285 <ParseSIB+0xa6>
     289:	e8 fc ff ff ff       	call   28a <ParseSIB+0xab>
     28e:	e8 fc ff ff ff       	call   28f <ParseSIB+0xb0>
     293:	89 45 d4             	mov    %eax,-0x2c(%ebp)
     296:	e8 fc ff ff ff       	call   297 <ParseSIB+0xb8>
     29b:	83 45 ec 01          	addl   $0x1,-0x14(%ebp)
     29f:	83 ec 0c             	sub    $0xc,%esp
     2a2:	ff 75 ec             	pushl  -0x14(%ebp)
     2a5:	e8 fc ff ff ff       	call   2a6 <ParseSIB+0xc7>
     2aa:	83 c4 10             	add    $0x10,%esp
     2ad:	0f b6 00             	movzbl (%eax),%eax
     2b0:	83 e0 07             	and    $0x7,%eax
     2b3:	89 c2                	mov    %eax,%edx
     2b5:	8b 45 dc             	mov    -0x24(%ebp),%eax
     2b8:	89 d1                	mov    %edx,%ecx
     2ba:	83 e1 07             	and    $0x7,%ecx
     2bd:	0f b6 10             	movzbl (%eax),%edx
     2c0:	83 e2 f8             	and    $0xfffffff8,%edx
     2c3:	09 ca                	or     %ecx,%edx
     2c5:	88 10                	mov    %dl,(%eax)
     2c7:	83 45 d8 01          	addl   $0x1,-0x28(%ebp)
     2cb:	83 ec 0c             	sub    $0xc,%esp
     2ce:	ff 75 d8             	pushl  -0x28(%ebp)
     2d1:	e8 fc ff ff ff       	call   2d2 <ParseSIB+0xf3>
     2d6:	83 c4 10             	add    $0x10,%esp
     2d9:	0f b6 00             	movzbl (%eax),%eax
     2dc:	83 e0 07             	and    $0x7,%eax
     2df:	89 c2                	mov    %eax,%edx
     2e1:	8b 45 dc             	mov    -0x24(%ebp),%eax
     2e4:	83 e2 07             	and    $0x7,%edx
     2e7:	8d 0c d5 00 00 00 00 	lea    0x0(,%edx,8),%ecx
     2ee:	0f b6 10             	movzbl (%eax),%edx
     2f1:	83 e2 c7             	and    $0xffffffc7,%edx
     2f4:	09 ca                	or     %ecx,%edx
     2f6:	88 10                	mov    %dl,(%eax)
     2f8:	83 ec 0c             	sub    $0xc,%esp
     2fb:	ff 75 d4             	pushl  -0x2c(%ebp)
     2fe:	e8 fc ff ff ff       	call   2ff <ParseSIB+0x120>
     303:	83 c4 10             	add    $0x10,%esp
     306:	83 e0 03             	and    $0x3,%eax
     309:	8b 55 dc             	mov    -0x24(%ebp),%edx
     30c:	c1 e0 06             	shl    $0x6,%eax
     30f:	89 c1                	mov    %eax,%ecx
     311:	0f b6 02             	movzbl (%edx),%eax
     314:	83 e0 3f             	and    $0x3f,%eax
     317:	09 c8                	or     %ecx,%eax
     319:	88 02                	mov    %al,(%edx)
     31b:	8b 45 dc             	mov    -0x24(%ebp),%eax
     31e:	8b 55 f0             	mov    -0x10(%ebp),%edx
     321:	89 50 04             	mov    %edx,0x4(%eax)
     324:	8b 45 dc             	mov    -0x24(%ebp),%eax
     327:	c9                   	leave  
     328:	c3                   	ret    

00000329 <ParseOprand>:
     329:	55                   	push   %ebp
     32a:	89 e5                	mov    %esp,%ebp
     32c:	53                   	push   %ebx
     32d:	81 ec 94 00 00 00    	sub    $0x94,%esp
     333:	e8 fc ff ff ff       	call   334 <ParseOprand+0xb>
     338:	89 45 f0             	mov    %eax,-0x10(%ebp)
     33b:	83 ec 0c             	sub    $0xc,%esp
     33e:	6a 10                	push   $0x10
     340:	e8 fc ff ff ff       	call   341 <ParseOprand+0x18>
     345:	83 c4 10             	add    $0x10,%esp
     348:	89 45 ec             	mov    %eax,-0x14(%ebp)
     34b:	83 7d f0 00          	cmpl   $0x0,-0x10(%ebp)
     34f:	75 38                	jne    389 <ParseOprand+0x60>
     351:	e8 fc ff ff ff       	call   352 <ParseOprand+0x29>
     356:	89 45 e8             	mov    %eax,-0x18(%ebp)
     359:	e8 fc ff ff ff       	call   35a <ParseOprand+0x31>
     35e:	89 45 e4             	mov    %eax,-0x1c(%ebp)
     361:	83 45 e4 01          	addl   $0x1,-0x1c(%ebp)
     365:	83 ec 0c             	sub    $0xc,%esp
     368:	ff 75 e4             	pushl  -0x1c(%ebp)
     36b:	e8 fc ff ff ff       	call   36c <ParseOprand+0x43>
     370:	83 c4 10             	add    $0x10,%esp
     373:	89 c2                	mov    %eax,%edx
     375:	8b 45 ec             	mov    -0x14(%ebp),%eax
     378:	89 10                	mov    %edx,(%eax)
     37a:	8b 45 ec             	mov    -0x14(%ebp),%eax
     37d:	c7 40 08 00 00 00 00 	movl   $0x0,0x8(%eax)
     384:	e9 c0 01 00 00       	jmp    549 <ParseOprand+0x220>
     389:	83 7d f0 01          	cmpl   $0x1,-0x10(%ebp)
     38d:	75 1d                	jne    3ac <ParseOprand+0x83>
     38f:	e8 fc ff ff ff       	call   390 <ParseOprand+0x67>
     394:	89 45 e0             	mov    %eax,-0x20(%ebp)
     397:	8b 4d ec             	mov    -0x14(%ebp),%ecx
     39a:	8b 45 e0             	mov    -0x20(%ebp),%eax
     39d:	8b 50 04             	mov    0x4(%eax),%edx
     3a0:	8b 00                	mov    (%eax),%eax
     3a2:	89 01                	mov    %eax,(%ecx)
     3a4:	89 51 04             	mov    %edx,0x4(%ecx)
     3a7:	e9 9d 01 00 00       	jmp    549 <ParseOprand+0x220>
     3ac:	83 7d f0 02          	cmpl   $0x2,-0x10(%ebp)
     3b0:	0f 85 c0 00 00 00    	jne    476 <ParseOprand+0x14d>
     3b6:	e8 fc ff ff ff       	call   3b7 <ParseOprand+0x8e>
     3bb:	e8 fc ff ff ff       	call   3bc <ParseOprand+0x93>
     3c0:	89 45 dc             	mov    %eax,-0x24(%ebp)
     3c3:	c7 45 f4 ff ff ff ff 	movl   $0xffffffff,-0xc(%ebp)
     3ca:	83 7d dc 01          	cmpl   $0x1,-0x24(%ebp)
     3ce:	75 19                	jne    3e9 <ParseOprand+0xc0>
     3d0:	e8 fc ff ff ff       	call   3d1 <ParseOprand+0xa8>
     3d5:	89 45 d8             	mov    %eax,-0x28(%ebp)
     3d8:	83 ec 0c             	sub    $0xc,%esp
     3db:	ff 75 d8             	pushl  -0x28(%ebp)
     3de:	e8 fc ff ff ff       	call   3df <ParseOprand+0xb6>
     3e3:	83 c4 10             	add    $0x10,%esp
     3e6:	89 45 f4             	mov    %eax,-0xc(%ebp)
     3e9:	e8 fc ff ff ff       	call   3ea <ParseOprand+0xc1>
     3ee:	83 7d f4 ff          	cmpl   $0xffffffff,-0xc(%ebp)
     3f2:	74 05                	je     3f9 <ParseOprand+0xd0>
     3f4:	e8 fc ff ff ff       	call   3f5 <ParseOprand+0xcc>
     3f9:	e8 fc ff ff ff       	call   3fa <ParseOprand+0xd1>
     3fe:	e8 fc ff ff ff       	call   3ff <ParseOprand+0xd6>
     403:	89 45 d4             	mov    %eax,-0x2c(%ebp)
     406:	83 7d d4 14          	cmpl   $0x14,-0x2c(%ebp)
     40a:	74 28                	je     434 <ParseOprand+0x10b>
     40c:	e8 fc ff ff ff       	call   40d <ParseOprand+0xe4>
     411:	83 ec 04             	sub    $0x4,%esp
     414:	68 e3 00 00 00       	push   $0xe3
     419:	50                   	push   %eax
     41a:	68 44 00 00 00       	push   $0x44
     41f:	e8 fc ff ff ff       	call   420 <ParseOprand+0xf7>
     424:	83 c4 10             	add    $0x10,%esp
     427:	83 ec 0c             	sub    $0xc,%esp
     42a:	68 e4 00 00 00       	push   $0xe4
     42f:	e8 fc ff ff ff       	call   430 <ParseOprand+0x107>
     434:	e8 fc ff ff ff       	call   435 <ParseOprand+0x10c>
     439:	89 45 d8             	mov    %eax,-0x28(%ebp)
     43c:	83 45 d8 01          	addl   $0x1,-0x28(%ebp)
     440:	83 ec 0c             	sub    $0xc,%esp
     443:	ff 75 d8             	pushl  -0x28(%ebp)
     446:	e8 fc ff ff ff       	call   447 <ParseOprand+0x11e>
     44b:	83 c4 10             	add    $0x10,%esp
     44e:	89 45 d0             	mov    %eax,-0x30(%ebp)
     451:	8b 45 d0             	mov    -0x30(%ebp),%eax
     454:	0f b6 00             	movzbl (%eax),%eax
     457:	89 c2                	mov    %eax,%edx
     459:	8b 45 ec             	mov    -0x14(%ebp),%eax
     45c:	88 10                	mov    %dl,(%eax)
     45e:	8b 45 ec             	mov    -0x14(%ebp),%eax
     461:	8b 55 f4             	mov    -0xc(%ebp),%edx
     464:	89 50 04             	mov    %edx,0x4(%eax)
     467:	8b 45 ec             	mov    -0x14(%ebp),%eax
     46a:	c7 40 08 02 00 00 00 	movl   $0x2,0x8(%eax)
     471:	e9 d3 00 00 00       	jmp    549 <ParseOprand+0x220>
     476:	83 7d f0 03          	cmpl   $0x3,-0x10(%ebp)
     47a:	75 34                	jne    4b0 <ParseOprand+0x187>
     47c:	e8 fc ff ff ff       	call   47d <ParseOprand+0x154>
     481:	89 45 cc             	mov    %eax,-0x34(%ebp)
     484:	e8 fc ff ff ff       	call   485 <ParseOprand+0x15c>
     489:	89 45 c8             	mov    %eax,-0x38(%ebp)
     48c:	83 ec 0c             	sub    $0xc,%esp
     48f:	ff 75 c8             	pushl  -0x38(%ebp)
     492:	e8 fc ff ff ff       	call   493 <ParseOprand+0x16a>
     497:	83 c4 10             	add    $0x10,%esp
     49a:	89 c2                	mov    %eax,%edx
     49c:	8b 45 ec             	mov    -0x14(%ebp),%eax
     49f:	89 10                	mov    %edx,(%eax)
     4a1:	8b 45 ec             	mov    -0x14(%ebp),%eax
     4a4:	c7 40 08 03 00 00 00 	movl   $0x3,0x8(%eax)
     4ab:	e9 99 00 00 00       	jmp    549 <ParseOprand+0x220>
     4b0:	83 7d f0 04          	cmpl   $0x4,-0x10(%ebp)
     4b4:	75 35                	jne    4eb <ParseOprand+0x1c2>
     4b6:	e8 fc ff ff ff       	call   4b7 <ParseOprand+0x18e>
     4bb:	89 45 c4             	mov    %eax,-0x3c(%ebp)
     4be:	e8 fc ff ff ff       	call   4bf <ParseOprand+0x196>
     4c3:	89 45 c0             	mov    %eax,-0x40(%ebp)
     4c6:	83 45 c0 01          	addl   $0x1,-0x40(%ebp)
     4ca:	83 ec 0c             	sub    $0xc,%esp
     4cd:	ff 75 c0             	pushl  -0x40(%ebp)
     4d0:	e8 fc ff ff ff       	call   4d1 <ParseOprand+0x1a8>
     4d5:	83 c4 10             	add    $0x10,%esp
     4d8:	89 c2                	mov    %eax,%edx
     4da:	8b 45 ec             	mov    -0x14(%ebp),%eax
     4dd:	89 10                	mov    %edx,(%eax)
     4df:	8b 45 ec             	mov    -0x14(%ebp),%eax
     4e2:	c7 40 08 04 00 00 00 	movl   $0x4,0x8(%eax)
     4e9:	eb 5e                	jmp    549 <ParseOprand+0x220>
     4eb:	83 7d f0 06          	cmpl   $0x6,-0x10(%ebp)
     4ef:	75 3d                	jne    52e <ParseOprand+0x205>
     4f1:	e8 fc ff ff ff       	call   4f2 <ParseOprand+0x1c9>
     4f6:	e8 fc ff ff ff       	call   4f7 <ParseOprand+0x1ce>
     4fb:	e8 fc ff ff ff       	call   4fc <ParseOprand+0x1d3>
     500:	e8 fc ff ff ff       	call   501 <ParseOprand+0x1d8>
     505:	89 45 bc             	mov    %eax,-0x44(%ebp)
     508:	e8 fc ff ff ff       	call   509 <ParseOprand+0x1e0>
     50d:	8b 45 ec             	mov    -0x14(%ebp),%eax
     510:	c7 40 08 06 00 00 00 	movl   $0x6,0x8(%eax)
     517:	83 ec 0c             	sub    $0xc,%esp
     51a:	ff 75 bc             	pushl  -0x44(%ebp)
     51d:	e8 fc ff ff ff       	call   51e <ParseOprand+0x1f5>
     522:	83 c4 10             	add    $0x10,%esp
     525:	89 c2                	mov    %eax,%edx
     527:	8b 45 ec             	mov    -0x14(%ebp),%eax
     52a:	89 10                	mov    %edx,(%eax)
     52c:	eb 1b                	jmp    549 <ParseOprand+0x220>
     52e:	e8 fc ff ff ff       	call   52f <ParseOprand+0x206>
     533:	e8 fc ff ff ff       	call   534 <ParseOprand+0x20b>
     538:	89 c2                	mov    %eax,%edx
     53a:	8b 45 ec             	mov    -0x14(%ebp),%eax
     53d:	89 10                	mov    %edx,(%eax)
     53f:	8b 45 ec             	mov    -0x14(%ebp),%eax
     542:	c7 40 08 05 00 00 00 	movl   $0x5,0x8(%eax)
     549:	83 7d f0 00          	cmpl   $0x0,-0x10(%ebp)
     54d:	75 3c                	jne    58b <ParseOprand+0x262>
     54f:	8b 45 ec             	mov    -0x14(%ebp),%eax
     552:	8b 00                	mov    (%eax),%eax
     554:	89 45 b8             	mov    %eax,-0x48(%ebp)
     557:	83 ec 0c             	sub    $0xc,%esp
     55a:	6a 21                	push   $0x21
     55c:	e8 fc ff ff ff       	call   55d <ParseOprand+0x234>
     561:	83 c4 10             	add    $0x10,%esp
     564:	89 45 b4             	mov    %eax,-0x4c(%ebp)
     567:	83 ec 04             	sub    $0x4,%esp
     56a:	ff 75 b8             	pushl  -0x48(%ebp)
     56d:	68 65 00 00 00       	push   $0x65
     572:	ff 75 b4             	pushl  -0x4c(%ebp)
     575:	e8 fc ff ff ff       	call   576 <ParseOprand+0x24d>
     57a:	83 c4 10             	add    $0x10,%esp
     57d:	8b 45 ec             	mov    -0x14(%ebp),%eax
     580:	8b 55 b4             	mov    -0x4c(%ebp),%edx
     583:	89 50 0c             	mov    %edx,0xc(%eax)
     586:	e9 be 01 00 00       	jmp    749 <ParseOprand+0x420>
     58b:	83 7d f0 01          	cmpl   $0x1,-0x10(%ebp)
     58f:	75 6d                	jne    5fe <ParseOprand+0x2d5>
     591:	c7 45 b0 68 00 00 00 	movl   $0x68,-0x50(%ebp)
     598:	83 ec 0c             	sub    $0xc,%esp
     59b:	6a 14                	push   $0x14
     59d:	e8 fc ff ff ff       	call   59e <ParseOprand+0x275>
     5a2:	83 c4 10             	add    $0x10,%esp
     5a5:	89 45 ac             	mov    %eax,-0x54(%ebp)
     5a8:	8b 45 ec             	mov    -0x14(%ebp),%eax
     5ab:	89 45 a8             	mov    %eax,-0x58(%ebp)
     5ae:	8b 45 a8             	mov    -0x58(%ebp),%eax
     5b1:	0f b6 00             	movzbl (%eax),%eax
     5b4:	c0 e8 06             	shr    $0x6,%al
     5b7:	0f b6 d8             	movzbl %al,%ebx
     5ba:	8b 45 a8             	mov    -0x58(%ebp),%eax
     5bd:	0f b6 00             	movzbl (%eax),%eax
     5c0:	c0 e8 03             	shr    $0x3,%al
     5c3:	83 e0 07             	and    $0x7,%eax
     5c6:	0f b6 c8             	movzbl %al,%ecx
     5c9:	8b 45 a8             	mov    -0x58(%ebp),%eax
     5cc:	0f b6 00             	movzbl (%eax),%eax
     5cf:	83 e0 07             	and    $0x7,%eax
     5d2:	0f b6 d0             	movzbl %al,%edx
     5d5:	8b 45 a8             	mov    -0x58(%ebp),%eax
     5d8:	8b 40 04             	mov    0x4(%eax),%eax
     5db:	83 ec 08             	sub    $0x8,%esp
     5de:	53                   	push   %ebx
     5df:	51                   	push   %ecx
     5e0:	52                   	push   %edx
     5e1:	50                   	push   %eax
     5e2:	ff 75 b0             	pushl  -0x50(%ebp)
     5e5:	ff 75 ac             	pushl  -0x54(%ebp)
     5e8:	e8 fc ff ff ff       	call   5e9 <ParseOprand+0x2c0>
     5ed:	83 c4 20             	add    $0x20,%esp
     5f0:	8b 45 ec             	mov    -0x14(%ebp),%eax
     5f3:	8b 55 ac             	mov    -0x54(%ebp),%edx
     5f6:	89 50 0c             	mov    %edx,0xc(%eax)
     5f9:	e9 4b 01 00 00       	jmp    749 <ParseOprand+0x420>
     5fe:	83 7d f0 02          	cmpl   $0x2,-0x10(%ebp)
     602:	75 52                	jne    656 <ParseOprand+0x32d>
     604:	c7 45 a4 77 00 00 00 	movl   $0x77,-0x5c(%ebp)
     60b:	83 ec 0c             	sub    $0xc,%esp
     60e:	6a 14                	push   $0x14
     610:	e8 fc ff ff ff       	call   611 <ParseOprand+0x2e8>
     615:	83 c4 10             	add    $0x10,%esp
     618:	89 45 a0             	mov    %eax,-0x60(%ebp)
     61b:	8b 45 ec             	mov    -0x14(%ebp),%eax
     61e:	8b 00                	mov    (%eax),%eax
     620:	89 45 9c             	mov    %eax,-0x64(%ebp)
     623:	8b 45 ec             	mov    -0x14(%ebp),%eax
     626:	89 45 98             	mov    %eax,-0x68(%ebp)
     629:	8b 45 98             	mov    -0x68(%ebp),%eax
     62c:	0f b6 00             	movzbl (%eax),%eax
     62f:	0f be d0             	movsbl %al,%edx
     632:	8b 45 98             	mov    -0x68(%ebp),%eax
     635:	8b 40 04             	mov    0x4(%eax),%eax
     638:	52                   	push   %edx
     639:	50                   	push   %eax
     63a:	ff 75 a4             	pushl  -0x5c(%ebp)
     63d:	ff 75 a0             	pushl  -0x60(%ebp)
     640:	e8 fc ff ff ff       	call   641 <ParseOprand+0x318>
     645:	83 c4 10             	add    $0x10,%esp
     648:	8b 45 ec             	mov    -0x14(%ebp),%eax
     64b:	8b 55 a0             	mov    -0x60(%ebp),%edx
     64e:	89 50 0c             	mov    %edx,0xc(%eax)
     651:	e9 f3 00 00 00       	jmp    749 <ParseOprand+0x420>
     656:	83 7d f0 03          	cmpl   $0x3,-0x10(%ebp)
     65a:	75 41                	jne    69d <ParseOprand+0x374>
     65c:	c7 45 94 65 00 00 00 	movl   $0x65,-0x6c(%ebp)
     663:	83 ec 0c             	sub    $0xc,%esp
     666:	6a 20                	push   $0x20
     668:	e8 fc ff ff ff       	call   669 <ParseOprand+0x340>
     66d:	83 c4 10             	add    $0x10,%esp
     670:	89 45 90             	mov    %eax,-0x70(%ebp)
     673:	8b 45 ec             	mov    -0x14(%ebp),%eax
     676:	8b 00                	mov    (%eax),%eax
     678:	89 45 8c             	mov    %eax,-0x74(%ebp)
     67b:	83 ec 04             	sub    $0x4,%esp
     67e:	ff 75 8c             	pushl  -0x74(%ebp)
     681:	ff 75 94             	pushl  -0x6c(%ebp)
     684:	ff 75 90             	pushl  -0x70(%ebp)
     687:	e8 fc ff ff ff       	call   688 <ParseOprand+0x35f>
     68c:	83 c4 10             	add    $0x10,%esp
     68f:	8b 45 ec             	mov    -0x14(%ebp),%eax
     692:	8b 55 90             	mov    -0x70(%ebp),%edx
     695:	89 50 0c             	mov    %edx,0xc(%eax)
     698:	e9 ac 00 00 00       	jmp    749 <ParseOprand+0x420>
     69d:	83 7d f0 04          	cmpl   $0x4,-0x10(%ebp)
     6a1:	75 42                	jne    6e5 <ParseOprand+0x3bc>
     6a3:	c7 45 88 7e 00 00 00 	movl   $0x7e,-0x78(%ebp)
     6aa:	83 ec 0c             	sub    $0xc,%esp
     6ad:	6a 14                	push   $0x14
     6af:	e8 fc ff ff ff       	call   6b0 <ParseOprand+0x387>
     6b4:	83 c4 10             	add    $0x10,%esp
     6b7:	89 45 84             	mov    %eax,-0x7c(%ebp)
     6ba:	8b 45 ec             	mov    -0x14(%ebp),%eax
     6bd:	8b 00                	mov    (%eax),%eax
     6bf:	89 45 80             	mov    %eax,-0x80(%ebp)
     6c2:	8b 45 80             	mov    -0x80(%ebp),%eax
     6c5:	8b 40 04             	mov    0x4(%eax),%eax
     6c8:	83 ec 04             	sub    $0x4,%esp
     6cb:	50                   	push   %eax
     6cc:	ff 75 88             	pushl  -0x78(%ebp)
     6cf:	ff 75 84             	pushl  -0x7c(%ebp)
     6d2:	e8 fc ff ff ff       	call   6d3 <ParseOprand+0x3aa>
     6d7:	83 c4 10             	add    $0x10,%esp
     6da:	8b 45 ec             	mov    -0x14(%ebp),%eax
     6dd:	8b 55 84             	mov    -0x7c(%ebp),%edx
     6e0:	89 50 0c             	mov    %edx,0xc(%eax)
     6e3:	eb 64                	jmp    749 <ParseOprand+0x420>
     6e5:	83 7d f0 06          	cmpl   $0x6,-0x10(%ebp)
     6e9:	75 53                	jne    73e <ParseOprand+0x415>
     6eb:	c7 85 7c ff ff ff 81 	movl   $0x81,-0x84(%ebp)
     6f2:	00 00 00 
     6f5:	83 ec 0c             	sub    $0xc,%esp
     6f8:	6a 14                	push   $0x14
     6fa:	e8 fc ff ff ff       	call   6fb <ParseOprand+0x3d2>
     6ff:	83 c4 10             	add    $0x10,%esp
     702:	89 85 78 ff ff ff    	mov    %eax,-0x88(%ebp)
     708:	8b 45 ec             	mov    -0x14(%ebp),%eax
     70b:	8b 00                	mov    (%eax),%eax
     70d:	89 85 74 ff ff ff    	mov    %eax,-0x8c(%ebp)
     713:	83 ec 04             	sub    $0x4,%esp
     716:	ff b5 74 ff ff ff    	pushl  -0x8c(%ebp)
     71c:	ff b5 7c ff ff ff    	pushl  -0x84(%ebp)
     722:	ff b5 78 ff ff ff    	pushl  -0x88(%ebp)
     728:	e8 fc ff ff ff       	call   729 <ParseOprand+0x400>
     72d:	83 c4 10             	add    $0x10,%esp
     730:	8b 45 ec             	mov    -0x14(%ebp),%eax
     733:	8b 95 78 ff ff ff    	mov    -0x88(%ebp),%edx
     739:	89 50 0c             	mov    %edx,0xc(%eax)
     73c:	eb 0b                	jmp    749 <ParseOprand+0x420>
     73e:	8b 45 ec             	mov    -0x14(%ebp),%eax
     741:	8b 10                	mov    (%eax),%edx
     743:	8b 45 ec             	mov    -0x14(%ebp),%eax
     746:	89 50 0c             	mov    %edx,0xc(%eax)
     749:	8b 45 ec             	mov    -0x14(%ebp),%eax
     74c:	8b 5d fc             	mov    -0x4(%ebp),%ebx
     74f:	c9                   	leave  
     750:	c3                   	ret    

00000751 <GenerateSimpleInstr>:
     751:	55                   	push   %ebp
     752:	89 e5                	mov    %esp,%ebp
     754:	83 ec 28             	sub    $0x28,%esp
     757:	c7 45 e8 34 00 00 00 	movl   $0x34,-0x18(%ebp)
     75e:	83 ec 0c             	sub    $0xc,%esp
     761:	ff 75 e8             	pushl  -0x18(%ebp)
     764:	e8 fc ff ff ff       	call   765 <GenerateSimpleInstr+0x14>
     769:	83 c4 10             	add    $0x10,%esp
     76c:	89 45 e4             	mov    %eax,-0x1c(%ebp)
     76f:	8b 45 08             	mov    0x8(%ebp),%eax
     772:	89 c2                	mov    %eax,%edx
     774:	8b 45 e4             	mov    -0x1c(%ebp),%eax
     777:	88 10                	mov    %dl,(%eax)
     779:	8b 45 e4             	mov    -0x1c(%ebp),%eax
     77c:	0f b7 55 0c          	movzwl 0xc(%ebp),%edx
     780:	66 89 50 01          	mov    %dx,0x1(%eax)
     784:	8b 45 e4             	mov    -0x1c(%ebp),%eax
     787:	8b 55 10             	mov    0x10(%ebp),%edx
     78a:	89 50 04             	mov    %edx,0x4(%eax)
     78d:	8b 45 e4             	mov    -0x1c(%ebp),%eax
     790:	8b 55 14             	mov    0x14(%ebp),%edx
     793:	89 50 08             	mov    %edx,0x8(%eax)
     796:	8b 45 e4             	mov    -0x1c(%ebp),%eax
     799:	c7 40 10 00 00 00 00 	movl   $0x0,0x10(%eax)
     7a0:	8b 45 e4             	mov    -0x1c(%ebp),%eax
     7a3:	c7 40 0c 00 00 00 00 	movl   $0x0,0xc(%eax)
     7aa:	8b 45 e4             	mov    -0x1c(%ebp),%eax
     7ad:	c7 40 1c 00 00 00 00 	movl   $0x0,0x1c(%eax)
     7b4:	8b 4d e4             	mov    -0x1c(%ebp),%ecx
     7b7:	8b 45 1c             	mov    0x1c(%ebp),%eax
     7ba:	8b 55 20             	mov    0x20(%ebp),%edx
     7bd:	89 41 14             	mov    %eax,0x14(%ecx)
     7c0:	89 51 18             	mov    %edx,0x18(%ecx)
     7c3:	83 7d 08 00          	cmpl   $0x0,0x8(%ebp)
     7c7:	0f 95 c0             	setne  %al
     7ca:	0f b6 d0             	movzbl %al,%edx
     7cd:	a1 18 00 00 00       	mov    0x18,%eax
     7d2:	01 d0                	add    %edx,%eax
     7d4:	a3 18 00 00 00       	mov    %eax,0x18
     7d9:	a1 18 00 00 00       	mov    0x18,%eax
     7de:	83 c0 01             	add    $0x1,%eax
     7e1:	a3 18 00 00 00       	mov    %eax,0x18
     7e6:	0f b6 45 0d          	movzbl 0xd(%ebp),%eax
     7ea:	3c ff                	cmp    $0xff,%al
     7ec:	0f 95 c0             	setne  %al
     7ef:	0f b6 d0             	movzbl %al,%edx
     7f2:	a1 18 00 00 00       	mov    0x18,%eax
     7f7:	01 d0                	add    %edx,%eax
     7f9:	a3 18 00 00 00       	mov    %eax,0x18
     7fe:	83 7d 10 00          	cmpl   $0x0,0x10(%ebp)
     802:	0f 95 c0             	setne  %al
     805:	0f b6 d0             	movzbl %al,%edx
     808:	a1 18 00 00 00       	mov    0x18,%eax
     80d:	01 d0                	add    %edx,%eax
     80f:	a3 18 00 00 00       	mov    %eax,0x18
     814:	83 7d 14 00          	cmpl   $0x0,0x14(%ebp)
     818:	0f 95 c0             	setne  %al
     81b:	0f b6 d0             	movzbl %al,%edx
     81e:	a1 18 00 00 00       	mov    0x18,%eax
     823:	01 d0                	add    %edx,%eax
     825:	a3 18 00 00 00       	mov    %eax,0x18
     82a:	c7 45 e0 00 00 00 00 	movl   $0x0,-0x20(%ebp)
     831:	c7 45 f4 00 00 00 00 	movl   $0x0,-0xc(%ebp)
     838:	83 7d 18 00          	cmpl   $0x0,0x18(%ebp)
     83c:	74 3f                	je     87d <GenerateSimpleInstr+0x12c>
     83e:	8b 45 18             	mov    0x18(%ebp),%eax
     841:	8b 40 04             	mov    0x4(%eax),%eax
     844:	85 c0                	test   %eax,%eax
     846:	74 2a                	je     872 <GenerateSimpleInstr+0x121>
     848:	83 ec 0c             	sub    $0xc,%esp
     84b:	6a 08                	push   $0x8
     84d:	e8 fc ff ff ff       	call   84e <GenerateSimpleInstr+0xfd>
     852:	83 c4 10             	add    $0x10,%esp
     855:	89 45 f4             	mov    %eax,-0xc(%ebp)
     858:	a1 18 00 00 00       	mov    0x18,%eax
     85d:	89 c2                	mov    %eax,%edx
     85f:	8b 45 f4             	mov    -0xc(%ebp),%eax
     862:	89 10                	mov    %edx,(%eax)
     864:	8b 45 18             	mov    0x18(%ebp),%eax
     867:	8b 50 04             	mov    0x4(%eax),%edx
     86a:	8b 45 f4             	mov    -0xc(%ebp),%eax
     86d:	89 50 04             	mov    %edx,0x4(%eax)
     870:	eb 0b                	jmp    87d <GenerateSimpleInstr+0x12c>
     872:	8b 45 18             	mov    0x18(%ebp),%eax
     875:	8b 10                	mov    (%eax),%edx
     877:	8b 45 e4             	mov    -0x1c(%ebp),%eax
     87a:	89 50 0c             	mov    %edx,0xc(%eax)
     87d:	8b 45 e4             	mov    -0x1c(%ebp),%eax
     880:	8b 55 f4             	mov    -0xc(%ebp),%edx
     883:	89 50 1c             	mov    %edx,0x1c(%eax)
     886:	83 7d 10 00          	cmpl   $0x0,0x10(%ebp)
     88a:	74 27                	je     8b3 <GenerateSimpleInstr+0x162>
     88c:	8b 45 10             	mov    0x10(%ebp),%eax
     88f:	0f b6 00             	movzbl (%eax),%eax
     892:	83 e0 c0             	and    $0xffffffc0,%eax
     895:	84 c0                	test   %al,%al
     897:	75 1a                	jne    8b3 <GenerateSimpleInstr+0x162>
     899:	8b 45 10             	mov    0x10(%ebp),%eax
     89c:	0f b6 00             	movzbl (%eax),%eax
     89f:	83 e0 07             	and    $0x7,%eax
     8a2:	3c 05                	cmp    $0x5,%al
     8a4:	75 0d                	jne    8b3 <GenerateSimpleInstr+0x162>
     8a6:	a1 18 00 00 00       	mov    0x18,%eax
     8ab:	83 c0 04             	add    $0x4,%eax
     8ae:	a3 18 00 00 00       	mov    %eax,0x18
     8b3:	83 7d e0 00          	cmpl   $0x0,-0x20(%ebp)
     8b7:	74 3c                	je     8f5 <GenerateSimpleInstr+0x1a4>
     8b9:	83 7d 10 00          	cmpl   $0x0,0x10(%ebp)
     8bd:	74 36                	je     8f5 <GenerateSimpleInstr+0x1a4>
     8bf:	8b 45 10             	mov    0x10(%ebp),%eax
     8c2:	0f b6 00             	movzbl (%eax),%eax
     8c5:	83 e0 c0             	and    $0xffffffc0,%eax
     8c8:	3c 40                	cmp    $0x40,%al
     8ca:	75 0f                	jne    8db <GenerateSimpleInstr+0x18a>
     8cc:	a1 18 00 00 00       	mov    0x18,%eax
     8d1:	83 c0 01             	add    $0x1,%eax
     8d4:	a3 18 00 00 00       	mov    %eax,0x18
     8d9:	eb 1a                	jmp    8f5 <GenerateSimpleInstr+0x1a4>
     8db:	8b 45 10             	mov    0x10(%ebp),%eax
     8de:	0f b6 00             	movzbl (%eax),%eax
     8e1:	83 e0 c0             	and    $0xffffffc0,%eax
     8e4:	3c 80                	cmp    $0x80,%al
     8e6:	75 0d                	jne    8f5 <GenerateSimpleInstr+0x1a4>
     8e8:	a1 18 00 00 00       	mov    0x18,%eax
     8ed:	83 c0 04             	add    $0x4,%eax
     8f0:	a3 18 00 00 00       	mov    %eax,0x18
     8f5:	83 7d 10 00          	cmpl   $0x0,0x10(%ebp)
     8f9:	75 47                	jne    942 <GenerateSimpleInstr+0x1f1>
     8fb:	8b 45 20             	mov    0x20(%ebp),%eax
     8fe:	85 c0                	test   %eax,%eax
     900:	74 40                	je     942 <GenerateSimpleInstr+0x1f1>
     902:	c7 45 f0 00 00 00 00 	movl   $0x0,-0x10(%ebp)
     909:	8b 45 20             	mov    0x20(%ebp),%eax
     90c:	83 f8 01             	cmp    $0x1,%eax
     90f:	75 09                	jne    91a <GenerateSimpleInstr+0x1c9>
     911:	c7 45 f0 01 00 00 00 	movl   $0x1,-0x10(%ebp)
     918:	eb 18                	jmp    932 <GenerateSimpleInstr+0x1e1>
     91a:	8b 45 20             	mov    0x20(%ebp),%eax
     91d:	83 f8 02             	cmp    $0x2,%eax
     920:	75 09                	jne    92b <GenerateSimpleInstr+0x1da>
     922:	c7 45 f0 02 00 00 00 	movl   $0x2,-0x10(%ebp)
     929:	eb 07                	jmp    932 <GenerateSimpleInstr+0x1e1>
     92b:	c7 45 f0 04 00 00 00 	movl   $0x4,-0x10(%ebp)
     932:	8b 15 18 00 00 00    	mov    0x18,%edx
     938:	8b 45 f0             	mov    -0x10(%ebp),%eax
     93b:	01 d0                	add    %edx,%eax
     93d:	a3 18 00 00 00       	mov    %eax,0x18
     942:	8b 45 20             	mov    0x20(%ebp),%eax
     945:	85 c0                	test   %eax,%eax
     947:	74 48                	je     991 <GenerateSimpleInstr+0x240>
     949:	8b 45 20             	mov    0x20(%ebp),%eax
     94c:	89 45 dc             	mov    %eax,-0x24(%ebp)
     94f:	c7 45 ec 00 00 00 00 	movl   $0x0,-0x14(%ebp)
     956:	83 7d dc 01          	cmpl   $0x1,-0x24(%ebp)
     95a:	75 09                	jne    965 <GenerateSimpleInstr+0x214>
     95c:	c7 45 ec 01 00 00 00 	movl   $0x1,-0x14(%ebp)
     963:	eb 1c                	jmp    981 <GenerateSimpleInstr+0x230>
     965:	83 7d dc 02          	cmpl   $0x2,-0x24(%ebp)
     969:	75 09                	jne    974 <GenerateSimpleInstr+0x223>
     96b:	c7 45 ec 02 00 00 00 	movl   $0x2,-0x14(%ebp)
     972:	eb 0d                	jmp    981 <GenerateSimpleInstr+0x230>
     974:	83 7d dc 03          	cmpl   $0x3,-0x24(%ebp)
     978:	75 07                	jne    981 <GenerateSimpleInstr+0x230>
     97a:	c7 45 ec 04 00 00 00 	movl   $0x4,-0x14(%ebp)
     981:	8b 15 18 00 00 00    	mov    0x18,%edx
     987:	8b 45 ec             	mov    -0x14(%ebp),%eax
     98a:	01 d0                	add    %edx,%eax
     98c:	a3 18 00 00 00       	mov    %eax,0x18
     991:	8b 45 e4             	mov    -0x1c(%ebp),%eax
     994:	c9                   	leave  
     995:	c3                   	ret    

00000996 <GetMemoryInfo>:
     996:	55                   	push   %ebp
     997:	89 e5                	mov    %esp,%ebp
     999:	83 ec 38             	sub    $0x38,%esp
     99c:	83 ec 0c             	sub    $0xc,%esp
     99f:	6a 10                	push   $0x10
     9a1:	e8 fc ff ff ff       	call   9a2 <GetMemoryInfo+0xc>
     9a6:	83 c4 10             	add    $0x10,%esp
     9a9:	89 45 e4             	mov    %eax,-0x1c(%ebp)
     9ac:	c7 45 f4 00 00 00 00 	movl   $0x0,-0xc(%ebp)
     9b3:	c7 45 f0 00 00 00 00 	movl   $0x0,-0x10(%ebp)
     9ba:	c7 45 ec 00 00 00 00 	movl   $0x0,-0x14(%ebp)
     9c1:	c7 45 e8 00 00 00 00 	movl   $0x0,-0x18(%ebp)
     9c8:	8b 45 08             	mov    0x8(%ebp),%eax
     9cb:	8b 40 08             	mov    0x8(%eax),%eax
     9ce:	89 45 e0             	mov    %eax,-0x20(%ebp)
     9d1:	83 7d e0 01          	cmpl   $0x1,-0x20(%ebp)
     9d5:	75 73                	jne    a4a <GetMemoryInfo+0xb4>
     9d7:	8b 45 08             	mov    0x8(%ebp),%eax
     9da:	89 45 f4             	mov    %eax,-0xc(%ebp)
     9dd:	8b 45 f4             	mov    -0xc(%ebp),%eax
     9e0:	8b 40 04             	mov    0x4(%eax),%eax
     9e3:	89 45 dc             	mov    %eax,-0x24(%ebp)
     9e6:	83 7d dc 00          	cmpl   $0x0,-0x24(%ebp)
     9ea:	75 09                	jne    9f5 <GetMemoryInfo+0x5f>
     9ec:	c7 45 ec 00 00 00 00 	movl   $0x0,-0x14(%ebp)
     9f3:	eb 49                	jmp    a3e <GetMemoryInfo+0xa8>
     9f5:	83 ec 0c             	sub    $0xc,%esp
     9f8:	6a 0c                	push   $0xc
     9fa:	e8 fc ff ff ff       	call   9fb <GetMemoryInfo+0x65>
     9ff:	83 c4 10             	add    $0x10,%esp
     a02:	89 45 f0             	mov    %eax,-0x10(%ebp)
     a05:	8b 45 f0             	mov    -0x10(%ebp),%eax
     a08:	c7 40 08 03 00 00 00 	movl   $0x3,0x8(%eax)
     a0f:	8b 45 f0             	mov    -0x10(%ebp),%eax
     a12:	8b 55 dc             	mov    -0x24(%ebp),%edx
     a15:	89 10                	mov    %edx,(%eax)
     a17:	83 ec 0c             	sub    $0xc,%esp
     a1a:	ff 75 dc             	pushl  -0x24(%ebp)
     a1d:	e8 fc ff ff ff       	call   a1e <GetMemoryInfo+0x88>
     a22:	83 c4 10             	add    $0x10,%esp
     a25:	89 45 d8             	mov    %eax,-0x28(%ebp)
     a28:	83 7d d8 01          	cmpl   $0x1,-0x28(%ebp)
     a2c:	75 09                	jne    a37 <GetMemoryInfo+0xa1>
     a2e:	c7 45 ec 01 00 00 00 	movl   $0x1,-0x14(%ebp)
     a35:	eb 07                	jmp    a3e <GetMemoryInfo+0xa8>
     a37:	c7 45 ec 02 00 00 00 	movl   $0x2,-0x14(%ebp)
     a3e:	c7 45 e8 04 00 00 00 	movl   $0x4,-0x18(%ebp)
     a45:	e9 d3 00 00 00       	jmp    b1d <GetMemoryInfo+0x187>
     a4a:	83 7d e0 02          	cmpl   $0x2,-0x20(%ebp)
     a4e:	75 78                	jne    ac8 <GetMemoryInfo+0x132>
     a50:	8b 45 08             	mov    0x8(%ebp),%eax
     a53:	8b 50 04             	mov    0x4(%eax),%edx
     a56:	8b 00                	mov    (%eax),%eax
     a58:	89 45 c8             	mov    %eax,-0x38(%ebp)
     a5b:	89 55 cc             	mov    %edx,-0x34(%ebp)
     a5e:	8b 45 cc             	mov    -0x34(%ebp),%eax
     a61:	89 45 d4             	mov    %eax,-0x2c(%ebp)
     a64:	83 7d d4 00          	cmpl   $0x0,-0x2c(%ebp)
     a68:	75 09                	jne    a73 <GetMemoryInfo+0xdd>
     a6a:	c7 45 ec 00 00 00 00 	movl   $0x0,-0x14(%ebp)
     a71:	eb 49                	jmp    abc <GetMemoryInfo+0x126>
     a73:	83 ec 0c             	sub    $0xc,%esp
     a76:	6a 0c                	push   $0xc
     a78:	e8 fc ff ff ff       	call   a79 <GetMemoryInfo+0xe3>
     a7d:	83 c4 10             	add    $0x10,%esp
     a80:	89 45 f0             	mov    %eax,-0x10(%ebp)
     a83:	8b 45 f0             	mov    -0x10(%ebp),%eax
     a86:	c7 40 08 03 00 00 00 	movl   $0x3,0x8(%eax)
     a8d:	8b 45 f0             	mov    -0x10(%ebp),%eax
     a90:	8b 55 d4             	mov    -0x2c(%ebp),%edx
     a93:	89 10                	mov    %edx,(%eax)
     a95:	83 ec 0c             	sub    $0xc,%esp
     a98:	ff 75 d4             	pushl  -0x2c(%ebp)
     a9b:	e8 fc ff ff ff       	call   a9c <GetMemoryInfo+0x106>
     aa0:	83 c4 10             	add    $0x10,%esp
     aa3:	89 45 d0             	mov    %eax,-0x30(%ebp)
     aa6:	83 7d d0 01          	cmpl   $0x1,-0x30(%ebp)
     aaa:	75 09                	jne    ab5 <GetMemoryInfo+0x11f>
     aac:	c7 45 ec 01 00 00 00 	movl   $0x1,-0x14(%ebp)
     ab3:	eb 07                	jmp    abc <GetMemoryInfo+0x126>
     ab5:	c7 45 ec 02 00 00 00 	movl   $0x2,-0x14(%ebp)
     abc:	0f b6 45 c8          	movzbl -0x38(%ebp),%eax
     ac0:	0f be c0             	movsbl %al,%eax
     ac3:	89 45 e8             	mov    %eax,-0x18(%ebp)
     ac6:	eb 55                	jmp    b1d <GetMemoryInfo+0x187>
     ac8:	83 7d e0 03          	cmpl   $0x3,-0x20(%ebp)
     acc:	74 06                	je     ad4 <GetMemoryInfo+0x13e>
     ace:	83 7d e0 05          	cmpl   $0x5,-0x20(%ebp)
     ad2:	75 49                	jne    b1d <GetMemoryInfo+0x187>
     ad4:	c7 45 ec 00 00 00 00 	movl   $0x0,-0x14(%ebp)
     adb:	c7 45 e8 05 00 00 00 	movl   $0x5,-0x18(%ebp)
     ae2:	83 ec 0c             	sub    $0xc,%esp
     ae5:	6a 0c                	push   $0xc
     ae7:	e8 fc ff ff ff       	call   ae8 <GetMemoryInfo+0x152>
     aec:	83 c4 10             	add    $0x10,%esp
     aef:	89 45 f0             	mov    %eax,-0x10(%ebp)
     af2:	8b 45 f0             	mov    -0x10(%ebp),%eax
     af5:	c7 40 08 03 00 00 00 	movl   $0x3,0x8(%eax)
     afc:	83 7d e0 03          	cmpl   $0x3,-0x20(%ebp)
     b00:	75 0a                	jne    b0c <GetMemoryInfo+0x176>
     b02:	8b 45 08             	mov    0x8(%ebp),%eax
     b05:	8b 10                	mov    (%eax),%edx
     b07:	8b 45 f0             	mov    -0x10(%ebp),%eax
     b0a:	89 10                	mov    %edx,(%eax)
     b0c:	83 7d e0 05          	cmpl   $0x5,-0x20(%ebp)
     b10:	75 0b                	jne    b1d <GetMemoryInfo+0x187>
     b12:	8b 45 08             	mov    0x8(%ebp),%eax
     b15:	8b 10                	mov    (%eax),%edx
     b17:	8b 45 f0             	mov    -0x10(%ebp),%eax
     b1a:	89 50 04             	mov    %edx,0x4(%eax)
     b1d:	8b 45 e4             	mov    -0x1c(%ebp),%eax
     b20:	8b 55 f4             	mov    -0xc(%ebp),%edx
     b23:	89 50 04             	mov    %edx,0x4(%eax)
     b26:	8b 45 e4             	mov    -0x1c(%ebp),%eax
     b29:	8b 55 ec             	mov    -0x14(%ebp),%edx
     b2c:	89 50 08             	mov    %edx,0x8(%eax)
     b2f:	8b 45 e4             	mov    -0x1c(%ebp),%eax
     b32:	8b 55 e8             	mov    -0x18(%ebp),%edx
     b35:	89 50 0c             	mov    %edx,0xc(%eax)
     b38:	8b 45 e4             	mov    -0x1c(%ebp),%eax
     b3b:	8b 55 f0             	mov    -0x10(%ebp),%edx
     b3e:	89 10                	mov    %edx,(%eax)
     b40:	8b 45 e4             	mov    -0x1c(%ebp),%eax
     b43:	c9                   	leave  
     b44:	c3                   	ret    

00000b45 <ParseFchsInstr>:
     b45:	55                   	push   %ebp
     b46:	89 e5                	mov    %esp,%ebp
     b48:	83 ec 28             	sub    $0x28,%esp
     b4b:	c6 45 ee d9          	movb   $0xd9,-0x12(%ebp)
     b4f:	c6 45 ef e0          	movb   $0xe0,-0x11(%ebp)
     b53:	c7 45 e4 00 00 00 00 	movl   $0x0,-0x1c(%ebp)
     b5a:	c7 45 e8 00 00 00 00 	movl   $0x0,-0x18(%ebp)
     b61:	83 ec 04             	sub    $0x4,%esp
     b64:	ff 75 e8             	pushl  -0x18(%ebp)
     b67:	ff 75 e4             	pushl  -0x1c(%ebp)
     b6a:	6a 00                	push   $0x0
     b6c:	6a 00                	push   $0x0
     b6e:	6a 00                	push   $0x0
     b70:	0f b7 45 ee          	movzwl -0x12(%ebp),%eax
     b74:	50                   	push   %eax
     b75:	6a 00                	push   $0x0
     b77:	e8 fc ff ff ff       	call   b78 <ParseFchsInstr+0x33>
     b7c:	83 c4 20             	add    $0x20,%esp
     b7f:	89 45 f4             	mov    %eax,-0xc(%ebp)
     b82:	c7 45 f0 00 00 00 00 	movl   $0x0,-0x10(%ebp)
     b89:	8b 45 f4             	mov    -0xc(%ebp),%eax
     b8c:	c9                   	leave  
     b8d:	c3                   	ret    

00000b8e <ParseFldzInstr>:
     b8e:	55                   	push   %ebp
     b8f:	89 e5                	mov    %esp,%ebp
     b91:	83 ec 28             	sub    $0x28,%esp
     b94:	c6 45 ee d9          	movb   $0xd9,-0x12(%ebp)
     b98:	c6 45 ef ee          	movb   $0xee,-0x11(%ebp)
     b9c:	c7 45 e4 00 00 00 00 	movl   $0x0,-0x1c(%ebp)
     ba3:	c7 45 e8 00 00 00 00 	movl   $0x0,-0x18(%ebp)
     baa:	83 ec 04             	sub    $0x4,%esp
     bad:	ff 75 e8             	pushl  -0x18(%ebp)
     bb0:	ff 75 e4             	pushl  -0x1c(%ebp)
     bb3:	6a 00                	push   $0x0
     bb5:	6a 00                	push   $0x0
     bb7:	6a 00                	push   $0x0
     bb9:	0f b7 45 ee          	movzwl -0x12(%ebp),%eax
     bbd:	50                   	push   %eax
     bbe:	6a 00                	push   $0x0
     bc0:	e8 fc ff ff ff       	call   bc1 <ParseFldzInstr+0x33>
     bc5:	83 c4 20             	add    $0x20,%esp
     bc8:	89 45 f4             	mov    %eax,-0xc(%ebp)
     bcb:	c7 45 f0 00 00 00 00 	movl   $0x0,-0x10(%ebp)
     bd2:	8b 45 f4             	mov    -0xc(%ebp),%eax
     bd5:	c9                   	leave  
     bd6:	c3                   	ret    

00000bd7 <ParseFucomppInstr>:
     bd7:	55                   	push   %ebp
     bd8:	89 e5                	mov    %esp,%ebp
     bda:	83 ec 28             	sub    $0x28,%esp
     bdd:	c6 45 ee da          	movb   $0xda,-0x12(%ebp)
     be1:	c6 45 ef e9          	movb   $0xe9,-0x11(%ebp)
     be5:	c7 45 e4 00 00 00 00 	movl   $0x0,-0x1c(%ebp)
     bec:	c7 45 e8 00 00 00 00 	movl   $0x0,-0x18(%ebp)
     bf3:	83 ec 04             	sub    $0x4,%esp
     bf6:	ff 75 e8             	pushl  -0x18(%ebp)
     bf9:	ff 75 e4             	pushl  -0x1c(%ebp)
     bfc:	6a 00                	push   $0x0
     bfe:	6a 00                	push   $0x0
     c00:	6a 00                	push   $0x0
     c02:	0f b7 45 ee          	movzwl -0x12(%ebp),%eax
     c06:	50                   	push   %eax
     c07:	6a 00                	push   $0x0
     c09:	e8 fc ff ff ff       	call   c0a <ParseFucomppInstr+0x33>
     c0e:	83 c4 20             	add    $0x20,%esp
     c11:	89 45 f4             	mov    %eax,-0xc(%ebp)
     c14:	c7 45 f0 00 00 00 00 	movl   $0x0,-0x10(%ebp)
     c1b:	8b 45 f4             	mov    -0xc(%ebp),%eax
     c1e:	c9                   	leave  
     c1f:	c3                   	ret    

00000c20 <ParseFld1Instr>:
     c20:	55                   	push   %ebp
     c21:	89 e5                	mov    %esp,%ebp
     c23:	83 ec 28             	sub    $0x28,%esp
     c26:	c6 45 ee d9          	movb   $0xd9,-0x12(%ebp)
     c2a:	c6 45 ef e8          	movb   $0xe8,-0x11(%ebp)
     c2e:	c7 45 e4 00 00 00 00 	movl   $0x0,-0x1c(%ebp)
     c35:	c7 45 e8 00 00 00 00 	movl   $0x0,-0x18(%ebp)
     c3c:	83 ec 04             	sub    $0x4,%esp
     c3f:	ff 75 e8             	pushl  -0x18(%ebp)
     c42:	ff 75 e4             	pushl  -0x1c(%ebp)
     c45:	6a 00                	push   $0x0
     c47:	6a 00                	push   $0x0
     c49:	6a 00                	push   $0x0
     c4b:	0f b7 45 ee          	movzwl -0x12(%ebp),%eax
     c4f:	50                   	push   %eax
     c50:	6a 00                	push   $0x0
     c52:	e8 fc ff ff ff       	call   c53 <ParseFld1Instr+0x33>
     c57:	83 c4 20             	add    $0x20,%esp
     c5a:	89 45 f4             	mov    %eax,-0xc(%ebp)
     c5d:	c7 45 f0 00 00 00 00 	movl   $0x0,-0x10(%ebp)
     c64:	8b 45 f4             	mov    -0xc(%ebp),%eax
     c67:	c9                   	leave  
     c68:	c3                   	ret    

00000c69 <ParseFaddsInstr>:
     c69:	55                   	push   %ebp
     c6a:	89 e5                	mov    %esp,%ebp
     c6c:	83 ec 38             	sub    $0x38,%esp
     c6f:	c6 45 da d8          	movb   $0xd8,-0x26(%ebp)
     c73:	c6 45 db ff          	movb   $0xff,-0x25(%ebp)
     c77:	c7 45 d0 00 00 00 00 	movl   $0x0,-0x30(%ebp)
     c7e:	c7 45 d4 00 00 00 00 	movl   $0x0,-0x2c(%ebp)
     c85:	83 ec 0c             	sub    $0xc,%esp
     c88:	6a 04                	push   $0x4
     c8a:	e8 fc ff ff ff       	call   c8b <ParseFaddsInstr+0x22>
     c8f:	83 c4 10             	add    $0x10,%esp
     c92:	89 45 f4             	mov    %eax,-0xc(%ebp)
     c95:	8b 45 f4             	mov    -0xc(%ebp),%eax
     c98:	0f b6 10             	movzbl (%eax),%edx
     c9b:	83 e2 3f             	and    $0x3f,%edx
     c9e:	88 10                	mov    %dl,(%eax)
     ca0:	8b 45 f4             	mov    -0xc(%ebp),%eax
     ca3:	0f b6 10             	movzbl (%eax),%edx
     ca6:	83 e2 c7             	and    $0xffffffc7,%edx
     ca9:	88 10                	mov    %dl,(%eax)
     cab:	8b 45 f4             	mov    -0xc(%ebp),%eax
     cae:	0f b6 10             	movzbl (%eax),%edx
     cb1:	83 e2 f8             	and    $0xfffffff8,%edx
     cb4:	83 ca 05             	or     $0x5,%edx
     cb7:	88 10                	mov    %dl,(%eax)
     cb9:	e8 fc ff ff ff       	call   cba <ParseFaddsInstr+0x51>
     cbe:	89 45 f0             	mov    %eax,-0x10(%ebp)
     cc1:	e8 fc ff ff ff       	call   cc2 <ParseFaddsInstr+0x59>
     cc6:	89 45 ec             	mov    %eax,-0x14(%ebp)
     cc9:	83 ec 0c             	sub    $0xc,%esp
     ccc:	ff 75 ec             	pushl  -0x14(%ebp)
     ccf:	e8 fc ff ff ff       	call   cd0 <ParseFaddsInstr+0x67>
     cd4:	83 c4 10             	add    $0x10,%esp
     cd7:	89 45 e8             	mov    %eax,-0x18(%ebp)
     cda:	83 ec 0c             	sub    $0xc,%esp
     cdd:	6a 0c                	push   $0xc
     cdf:	e8 fc ff ff ff       	call   ce0 <ParseFaddsInstr+0x77>
     ce4:	83 c4 10             	add    $0x10,%esp
     ce7:	89 45 e4             	mov    %eax,-0x1c(%ebp)
     cea:	8b 45 e4             	mov    -0x1c(%ebp),%eax
     ced:	8b 55 e8             	mov    -0x18(%ebp),%edx
     cf0:	89 10                	mov    %edx,(%eax)
     cf2:	83 ec 04             	sub    $0x4,%esp
     cf5:	ff 75 d4             	pushl  -0x2c(%ebp)
     cf8:	ff 75 d0             	pushl  -0x30(%ebp)
     cfb:	ff 75 e4             	pushl  -0x1c(%ebp)
     cfe:	6a 00                	push   $0x0
     d00:	ff 75 f4             	pushl  -0xc(%ebp)
     d03:	0f b7 45 da          	movzwl -0x26(%ebp),%eax
     d07:	50                   	push   %eax
     d08:	6a 00                	push   $0x0
     d0a:	e8 fc ff ff ff       	call   d0b <ParseFaddsInstr+0xa2>
     d0f:	83 c4 20             	add    $0x20,%esp
     d12:	89 45 e0             	mov    %eax,-0x20(%ebp)
     d15:	c7 45 dc 00 00 00 00 	movl   $0x0,-0x24(%ebp)
     d1c:	8b 45 e0             	mov    -0x20(%ebp),%eax
     d1f:	c9                   	leave  
     d20:	c3                   	ret    

00000d21 <ParseFaddlInstr>:
     d21:	55                   	push   %ebp
     d22:	89 e5                	mov    %esp,%ebp
     d24:	83 ec 38             	sub    $0x38,%esp
     d27:	c6 45 da dc          	movb   $0xdc,-0x26(%ebp)
     d2b:	c6 45 db ff          	movb   $0xff,-0x25(%ebp)
     d2f:	c7 45 d0 00 00 00 00 	movl   $0x0,-0x30(%ebp)
     d36:	c7 45 d4 00 00 00 00 	movl   $0x0,-0x2c(%ebp)
     d3d:	83 ec 0c             	sub    $0xc,%esp
     d40:	6a 04                	push   $0x4
     d42:	e8 fc ff ff ff       	call   d43 <ParseFaddlInstr+0x22>
     d47:	83 c4 10             	add    $0x10,%esp
     d4a:	89 45 f4             	mov    %eax,-0xc(%ebp)
     d4d:	8b 45 f4             	mov    -0xc(%ebp),%eax
     d50:	0f b6 10             	movzbl (%eax),%edx
     d53:	83 e2 3f             	and    $0x3f,%edx
     d56:	88 10                	mov    %dl,(%eax)
     d58:	8b 45 f4             	mov    -0xc(%ebp),%eax
     d5b:	0f b6 10             	movzbl (%eax),%edx
     d5e:	83 e2 c7             	and    $0xffffffc7,%edx
     d61:	88 10                	mov    %dl,(%eax)
     d63:	8b 45 f4             	mov    -0xc(%ebp),%eax
     d66:	0f b6 10             	movzbl (%eax),%edx
     d69:	83 e2 f8             	and    $0xfffffff8,%edx
     d6c:	83 ca 05             	or     $0x5,%edx
     d6f:	88 10                	mov    %dl,(%eax)
     d71:	e8 fc ff ff ff       	call   d72 <ParseFaddlInstr+0x51>
     d76:	89 45 f0             	mov    %eax,-0x10(%ebp)
     d79:	e8 fc ff ff ff       	call   d7a <ParseFaddlInstr+0x59>
     d7e:	89 45 ec             	mov    %eax,-0x14(%ebp)
     d81:	83 ec 0c             	sub    $0xc,%esp
     d84:	ff 75 ec             	pushl  -0x14(%ebp)
     d87:	e8 fc ff ff ff       	call   d88 <ParseFaddlInstr+0x67>
     d8c:	83 c4 10             	add    $0x10,%esp
     d8f:	89 45 e8             	mov    %eax,-0x18(%ebp)
     d92:	83 ec 0c             	sub    $0xc,%esp
     d95:	6a 0c                	push   $0xc
     d97:	e8 fc ff ff ff       	call   d98 <ParseFaddlInstr+0x77>
     d9c:	83 c4 10             	add    $0x10,%esp
     d9f:	89 45 e4             	mov    %eax,-0x1c(%ebp)
     da2:	8b 45 e4             	mov    -0x1c(%ebp),%eax
     da5:	8b 55 e8             	mov    -0x18(%ebp),%edx
     da8:	89 10                	mov    %edx,(%eax)
     daa:	83 ec 04             	sub    $0x4,%esp
     dad:	ff 75 d4             	pushl  -0x2c(%ebp)
     db0:	ff 75 d0             	pushl  -0x30(%ebp)
     db3:	ff 75 e4             	pushl  -0x1c(%ebp)
     db6:	6a 00                	push   $0x0
     db8:	ff 75 f4             	pushl  -0xc(%ebp)
     dbb:	0f b7 45 da          	movzwl -0x26(%ebp),%eax
     dbf:	50                   	push   %eax
     dc0:	6a 00                	push   $0x0
     dc2:	e8 fc ff ff ff       	call   dc3 <ParseFaddlInstr+0xa2>
     dc7:	83 c4 20             	add    $0x20,%esp
     dca:	89 45 e0             	mov    %eax,-0x20(%ebp)
     dcd:	c7 45 dc 00 00 00 00 	movl   $0x0,-0x24(%ebp)
     dd4:	8b 45 e0             	mov    -0x20(%ebp),%eax
     dd7:	c9                   	leave  
     dd8:	c3                   	ret    

00000dd9 <ParseFsubsInstr>:
     dd9:	55                   	push   %ebp
     dda:	89 e5                	mov    %esp,%ebp
     ddc:	83 ec 38             	sub    $0x38,%esp
     ddf:	c6 45 da d8          	movb   $0xd8,-0x26(%ebp)
     de3:	c6 45 db ff          	movb   $0xff,-0x25(%ebp)
     de7:	c7 45 d0 00 00 00 00 	movl   $0x0,-0x30(%ebp)
     dee:	c7 45 d4 00 00 00 00 	movl   $0x0,-0x2c(%ebp)
     df5:	83 ec 0c             	sub    $0xc,%esp
     df8:	6a 04                	push   $0x4
     dfa:	e8 fc ff ff ff       	call   dfb <ParseFsubsInstr+0x22>
     dff:	83 c4 10             	add    $0x10,%esp
     e02:	89 45 f4             	mov    %eax,-0xc(%ebp)
     e05:	8b 45 f4             	mov    -0xc(%ebp),%eax
     e08:	0f b6 10             	movzbl (%eax),%edx
     e0b:	83 e2 3f             	and    $0x3f,%edx
     e0e:	88 10                	mov    %dl,(%eax)
     e10:	8b 45 f4             	mov    -0xc(%ebp),%eax
     e13:	0f b6 10             	movzbl (%eax),%edx
     e16:	83 e2 c7             	and    $0xffffffc7,%edx
     e19:	83 ca 20             	or     $0x20,%edx
     e1c:	88 10                	mov    %dl,(%eax)
     e1e:	8b 45 f4             	mov    -0xc(%ebp),%eax
     e21:	0f b6 10             	movzbl (%eax),%edx
     e24:	83 e2 f8             	and    $0xfffffff8,%edx
     e27:	83 ca 05             	or     $0x5,%edx
     e2a:	88 10                	mov    %dl,(%eax)
     e2c:	e8 fc ff ff ff       	call   e2d <ParseFsubsInstr+0x54>
     e31:	89 45 f0             	mov    %eax,-0x10(%ebp)
     e34:	e8 fc ff ff ff       	call   e35 <ParseFsubsInstr+0x5c>
     e39:	89 45 ec             	mov    %eax,-0x14(%ebp)
     e3c:	83 ec 0c             	sub    $0xc,%esp
     e3f:	ff 75 ec             	pushl  -0x14(%ebp)
     e42:	e8 fc ff ff ff       	call   e43 <ParseFsubsInstr+0x6a>
     e47:	83 c4 10             	add    $0x10,%esp
     e4a:	89 45 e8             	mov    %eax,-0x18(%ebp)
     e4d:	83 ec 0c             	sub    $0xc,%esp
     e50:	6a 0c                	push   $0xc
     e52:	e8 fc ff ff ff       	call   e53 <ParseFsubsInstr+0x7a>
     e57:	83 c4 10             	add    $0x10,%esp
     e5a:	89 45 e4             	mov    %eax,-0x1c(%ebp)
     e5d:	8b 45 e4             	mov    -0x1c(%ebp),%eax
     e60:	8b 55 e8             	mov    -0x18(%ebp),%edx
     e63:	89 10                	mov    %edx,(%eax)
     e65:	83 ec 04             	sub    $0x4,%esp
     e68:	ff 75 d4             	pushl  -0x2c(%ebp)
     e6b:	ff 75 d0             	pushl  -0x30(%ebp)
     e6e:	ff 75 e4             	pushl  -0x1c(%ebp)
     e71:	6a 00                	push   $0x0
     e73:	ff 75 f4             	pushl  -0xc(%ebp)
     e76:	0f b7 45 da          	movzwl -0x26(%ebp),%eax
     e7a:	50                   	push   %eax
     e7b:	6a 00                	push   $0x0
     e7d:	e8 fc ff ff ff       	call   e7e <ParseFsubsInstr+0xa5>
     e82:	83 c4 20             	add    $0x20,%esp
     e85:	89 45 e0             	mov    %eax,-0x20(%ebp)
     e88:	c7 45 dc 00 00 00 00 	movl   $0x0,-0x24(%ebp)
     e8f:	8b 45 e0             	mov    -0x20(%ebp),%eax
     e92:	c9                   	leave  
     e93:	c3                   	ret    

00000e94 <ParseFsublInstr>:
     e94:	55                   	push   %ebp
     e95:	89 e5                	mov    %esp,%ebp
     e97:	83 ec 38             	sub    $0x38,%esp
     e9a:	c6 45 da dc          	movb   $0xdc,-0x26(%ebp)
     e9e:	c6 45 db ff          	movb   $0xff,-0x25(%ebp)
     ea2:	c7 45 d0 00 00 00 00 	movl   $0x0,-0x30(%ebp)
     ea9:	c7 45 d4 00 00 00 00 	movl   $0x0,-0x2c(%ebp)
     eb0:	83 ec 0c             	sub    $0xc,%esp
     eb3:	6a 04                	push   $0x4
     eb5:	e8 fc ff ff ff       	call   eb6 <ParseFsublInstr+0x22>
     eba:	83 c4 10             	add    $0x10,%esp
     ebd:	89 45 f4             	mov    %eax,-0xc(%ebp)
     ec0:	8b 45 f4             	mov    -0xc(%ebp),%eax
     ec3:	0f b6 10             	movzbl (%eax),%edx
     ec6:	83 e2 3f             	and    $0x3f,%edx
     ec9:	88 10                	mov    %dl,(%eax)
     ecb:	8b 45 f4             	mov    -0xc(%ebp),%eax
     ece:	0f b6 10             	movzbl (%eax),%edx
     ed1:	83 e2 c7             	and    $0xffffffc7,%edx
     ed4:	83 ca 20             	or     $0x20,%edx
     ed7:	88 10                	mov    %dl,(%eax)
     ed9:	8b 45 f4             	mov    -0xc(%ebp),%eax
     edc:	0f b6 10             	movzbl (%eax),%edx
     edf:	83 e2 f8             	and    $0xfffffff8,%edx
     ee2:	83 ca 05             	or     $0x5,%edx
     ee5:	88 10                	mov    %dl,(%eax)
     ee7:	e8 fc ff ff ff       	call   ee8 <ParseFsublInstr+0x54>
     eec:	89 45 f0             	mov    %eax,-0x10(%ebp)
     eef:	e8 fc ff ff ff       	call   ef0 <ParseFsublInstr+0x5c>
     ef4:	89 45 ec             	mov    %eax,-0x14(%ebp)
     ef7:	83 ec 0c             	sub    $0xc,%esp
     efa:	ff 75 ec             	pushl  -0x14(%ebp)
     efd:	e8 fc ff ff ff       	call   efe <ParseFsublInstr+0x6a>
     f02:	83 c4 10             	add    $0x10,%esp
     f05:	89 45 e8             	mov    %eax,-0x18(%ebp)
     f08:	83 ec 0c             	sub    $0xc,%esp
     f0b:	6a 0c                	push   $0xc
     f0d:	e8 fc ff ff ff       	call   f0e <ParseFsublInstr+0x7a>
     f12:	83 c4 10             	add    $0x10,%esp
     f15:	89 45 e4             	mov    %eax,-0x1c(%ebp)
     f18:	8b 45 e4             	mov    -0x1c(%ebp),%eax
     f1b:	8b 55 e8             	mov    -0x18(%ebp),%edx
     f1e:	89 10                	mov    %edx,(%eax)
     f20:	83 ec 04             	sub    $0x4,%esp
     f23:	ff 75 d4             	pushl  -0x2c(%ebp)
     f26:	ff 75 d0             	pushl  -0x30(%ebp)
     f29:	ff 75 e4             	pushl  -0x1c(%ebp)
     f2c:	6a 00                	push   $0x0
     f2e:	ff 75 f4             	pushl  -0xc(%ebp)
     f31:	0f b7 45 da          	movzwl -0x26(%ebp),%eax
     f35:	50                   	push   %eax
     f36:	6a 00                	push   $0x0
     f38:	e8 fc ff ff ff       	call   f39 <ParseFsublInstr+0xa5>
     f3d:	83 c4 20             	add    $0x20,%esp
     f40:	89 45 e0             	mov    %eax,-0x20(%ebp)
     f43:	c7 45 dc 00 00 00 00 	movl   $0x0,-0x24(%ebp)
     f4a:	8b 45 e0             	mov    -0x20(%ebp),%eax
     f4d:	c9                   	leave  
     f4e:	c3                   	ret    

00000f4f <ParseFdivsInstr>:
     f4f:	55                   	push   %ebp
     f50:	89 e5                	mov    %esp,%ebp
     f52:	83 ec 38             	sub    $0x38,%esp
     f55:	c6 45 da d8          	movb   $0xd8,-0x26(%ebp)
     f59:	c6 45 db ff          	movb   $0xff,-0x25(%ebp)
     f5d:	c7 45 d0 00 00 00 00 	movl   $0x0,-0x30(%ebp)
     f64:	c7 45 d4 00 00 00 00 	movl   $0x0,-0x2c(%ebp)
     f6b:	83 ec 0c             	sub    $0xc,%esp
     f6e:	6a 04                	push   $0x4
     f70:	e8 fc ff ff ff       	call   f71 <ParseFdivsInstr+0x22>
     f75:	83 c4 10             	add    $0x10,%esp
     f78:	89 45 f4             	mov    %eax,-0xc(%ebp)
     f7b:	8b 45 f4             	mov    -0xc(%ebp),%eax
     f7e:	0f b6 10             	movzbl (%eax),%edx
     f81:	83 e2 3f             	and    $0x3f,%edx
     f84:	88 10                	mov    %dl,(%eax)
     f86:	8b 45 f4             	mov    -0xc(%ebp),%eax
     f89:	0f b6 10             	movzbl (%eax),%edx
     f8c:	83 e2 c7             	and    $0xffffffc7,%edx
     f8f:	83 ca 30             	or     $0x30,%edx
     f92:	88 10                	mov    %dl,(%eax)
     f94:	8b 45 f4             	mov    -0xc(%ebp),%eax
     f97:	0f b6 10             	movzbl (%eax),%edx
     f9a:	83 e2 f8             	and    $0xfffffff8,%edx
     f9d:	83 ca 05             	or     $0x5,%edx
     fa0:	88 10                	mov    %dl,(%eax)
     fa2:	e8 fc ff ff ff       	call   fa3 <ParseFdivsInstr+0x54>
     fa7:	89 45 f0             	mov    %eax,-0x10(%ebp)
     faa:	e8 fc ff ff ff       	call   fab <ParseFdivsInstr+0x5c>
     faf:	89 45 ec             	mov    %eax,-0x14(%ebp)
     fb2:	83 ec 0c             	sub    $0xc,%esp
     fb5:	ff 75 ec             	pushl  -0x14(%ebp)
     fb8:	e8 fc ff ff ff       	call   fb9 <ParseFdivsInstr+0x6a>
     fbd:	83 c4 10             	add    $0x10,%esp
     fc0:	89 45 e8             	mov    %eax,-0x18(%ebp)
     fc3:	83 ec 0c             	sub    $0xc,%esp
     fc6:	6a 0c                	push   $0xc
     fc8:	e8 fc ff ff ff       	call   fc9 <ParseFdivsInstr+0x7a>
     fcd:	83 c4 10             	add    $0x10,%esp
     fd0:	89 45 e4             	mov    %eax,-0x1c(%ebp)
     fd3:	8b 45 e4             	mov    -0x1c(%ebp),%eax
     fd6:	8b 55 e8             	mov    -0x18(%ebp),%edx
     fd9:	89 10                	mov    %edx,(%eax)
     fdb:	83 ec 04             	sub    $0x4,%esp
     fde:	ff 75 d4             	pushl  -0x2c(%ebp)
     fe1:	ff 75 d0             	pushl  -0x30(%ebp)
     fe4:	ff 75 e4             	pushl  -0x1c(%ebp)
     fe7:	6a 00                	push   $0x0
     fe9:	ff 75 f4             	pushl  -0xc(%ebp)
     fec:	0f b7 45 da          	movzwl -0x26(%ebp),%eax
     ff0:	50                   	push   %eax
     ff1:	6a 00                	push   $0x0
     ff3:	e8 fc ff ff ff       	call   ff4 <ParseFdivsInstr+0xa5>
     ff8:	83 c4 20             	add    $0x20,%esp
     ffb:	89 45 e0             	mov    %eax,-0x20(%ebp)
     ffe:	c7 45 dc 00 00 00 00 	movl   $0x0,-0x24(%ebp)
    1005:	8b 45 e0             	mov    -0x20(%ebp),%eax
    1008:	c9                   	leave  
    1009:	c3                   	ret    

0000100a <ParseFdivlInstr>:
    100a:	55                   	push   %ebp
    100b:	89 e5                	mov    %esp,%ebp
    100d:	83 ec 38             	sub    $0x38,%esp
    1010:	c6 45 da dc          	movb   $0xdc,-0x26(%ebp)
    1014:	c6 45 db ff          	movb   $0xff,-0x25(%ebp)
    1018:	c7 45 d0 00 00 00 00 	movl   $0x0,-0x30(%ebp)
    101f:	c7 45 d4 00 00 00 00 	movl   $0x0,-0x2c(%ebp)
    1026:	83 ec 0c             	sub    $0xc,%esp
    1029:	6a 04                	push   $0x4
    102b:	e8 fc ff ff ff       	call   102c <ParseFdivlInstr+0x22>
    1030:	83 c4 10             	add    $0x10,%esp
    1033:	89 45 f4             	mov    %eax,-0xc(%ebp)
    1036:	8b 45 f4             	mov    -0xc(%ebp),%eax
    1039:	0f b6 10             	movzbl (%eax),%edx
    103c:	83 e2 3f             	and    $0x3f,%edx
    103f:	88 10                	mov    %dl,(%eax)
    1041:	8b 45 f4             	mov    -0xc(%ebp),%eax
    1044:	0f b6 10             	movzbl (%eax),%edx
    1047:	83 e2 c7             	and    $0xffffffc7,%edx
    104a:	83 ca 30             	or     $0x30,%edx
    104d:	88 10                	mov    %dl,(%eax)
    104f:	8b 45 f4             	mov    -0xc(%ebp),%eax
    1052:	0f b6 10             	movzbl (%eax),%edx
    1055:	83 e2 f8             	and    $0xfffffff8,%edx
    1058:	83 ca 05             	or     $0x5,%edx
    105b:	88 10                	mov    %dl,(%eax)
    105d:	e8 fc ff ff ff       	call   105e <ParseFdivlInstr+0x54>
    1062:	89 45 f0             	mov    %eax,-0x10(%ebp)
    1065:	e8 fc ff ff ff       	call   1066 <ParseFdivlInstr+0x5c>
    106a:	89 45 ec             	mov    %eax,-0x14(%ebp)
    106d:	83 ec 0c             	sub    $0xc,%esp
    1070:	ff 75 ec             	pushl  -0x14(%ebp)
    1073:	e8 fc ff ff ff       	call   1074 <ParseFdivlInstr+0x6a>
    1078:	83 c4 10             	add    $0x10,%esp
    107b:	89 45 e8             	mov    %eax,-0x18(%ebp)
    107e:	83 ec 0c             	sub    $0xc,%esp
    1081:	6a 0c                	push   $0xc
    1083:	e8 fc ff ff ff       	call   1084 <ParseFdivlInstr+0x7a>
    1088:	83 c4 10             	add    $0x10,%esp
    108b:	89 45 e4             	mov    %eax,-0x1c(%ebp)
    108e:	8b 45 e4             	mov    -0x1c(%ebp),%eax
    1091:	8b 55 e8             	mov    -0x18(%ebp),%edx
    1094:	89 10                	mov    %edx,(%eax)
    1096:	83 ec 04             	sub    $0x4,%esp
    1099:	ff 75 d4             	pushl  -0x2c(%ebp)
    109c:	ff 75 d0             	pushl  -0x30(%ebp)
    109f:	ff 75 e4             	pushl  -0x1c(%ebp)
    10a2:	6a 00                	push   $0x0
    10a4:	ff 75 f4             	pushl  -0xc(%ebp)
    10a7:	0f b7 45 da          	movzwl -0x26(%ebp),%eax
    10ab:	50                   	push   %eax
    10ac:	6a 00                	push   $0x0
    10ae:	e8 fc ff ff ff       	call   10af <ParseFdivlInstr+0xa5>
    10b3:	83 c4 20             	add    $0x20,%esp
    10b6:	89 45 e0             	mov    %eax,-0x20(%ebp)
    10b9:	c7 45 dc 00 00 00 00 	movl   $0x0,-0x24(%ebp)
    10c0:	8b 45 e0             	mov    -0x20(%ebp),%eax
    10c3:	c9                   	leave  
    10c4:	c3                   	ret    

000010c5 <ParseFnstswInstr>:
    10c5:	55                   	push   %ebp
    10c6:	89 e5                	mov    %esp,%ebp
    10c8:	83 ec 28             	sub    $0x28,%esp
    10cb:	c6 45 ee df          	movb   $0xdf,-0x12(%ebp)
    10cf:	c6 45 ef e0          	movb   $0xe0,-0x11(%ebp)
    10d3:	c7 45 e4 00 00 00 00 	movl   $0x0,-0x1c(%ebp)
    10da:	c7 45 e8 00 00 00 00 	movl   $0x0,-0x18(%ebp)
    10e1:	83 ec 04             	sub    $0x4,%esp
    10e4:	ff 75 e8             	pushl  -0x18(%ebp)
    10e7:	ff 75 e4             	pushl  -0x1c(%ebp)
    10ea:	6a 00                	push   $0x0
    10ec:	6a 00                	push   $0x0
    10ee:	6a 00                	push   $0x0
    10f0:	0f b7 45 ee          	movzwl -0x12(%ebp),%eax
    10f4:	50                   	push   %eax
    10f5:	6a 00                	push   $0x0
    10f7:	e8 fc ff ff ff       	call   10f8 <ParseFnstswInstr+0x33>
    10fc:	83 c4 20             	add    $0x20,%esp
    10ff:	89 45 f4             	mov    %eax,-0xc(%ebp)
    1102:	c7 45 f0 00 00 00 00 	movl   $0x0,-0x10(%ebp)
    1109:	8b 45 f4             	mov    -0xc(%ebp),%eax
    110c:	c9                   	leave  
    110d:	c3                   	ret    

0000110e <ParseFldsInstr>:
    110e:	55                   	push   %ebp
    110f:	89 e5                	mov    %esp,%ebp
    1111:	83 ec 38             	sub    $0x38,%esp
    1114:	c7 45 d4 00 00 00 00 	movl   $0x0,-0x2c(%ebp)
    111b:	c7 45 d8 00 00 00 00 	movl   $0x0,-0x28(%ebp)
    1122:	c6 45 d2 d9          	movb   $0xd9,-0x2e(%ebp)
    1126:	c6 45 d3 ff          	movb   $0xff,-0x2d(%ebp)
    112a:	83 ec 0c             	sub    $0xc,%esp
    112d:	6a 04                	push   $0x4
    112f:	e8 fc ff ff ff       	call   1130 <ParseFldsInstr+0x22>
    1134:	83 c4 10             	add    $0x10,%esp
    1137:	89 45 f4             	mov    %eax,-0xc(%ebp)
    113a:	8b 45 f4             	mov    -0xc(%ebp),%eax
    113d:	0f b6 10             	movzbl (%eax),%edx
    1140:	83 e2 3f             	and    $0x3f,%edx
    1143:	88 10                	mov    %dl,(%eax)
    1145:	8b 45 f4             	mov    -0xc(%ebp),%eax
    1148:	0f b6 10             	movzbl (%eax),%edx
    114b:	83 e2 c7             	and    $0xffffffc7,%edx
    114e:	88 10                	mov    %dl,(%eax)
    1150:	8b 45 f4             	mov    -0xc(%ebp),%eax
    1153:	0f b6 10             	movzbl (%eax),%edx
    1156:	83 e2 f8             	and    $0xfffffff8,%edx
    1159:	83 ca 05             	or     $0x5,%edx
    115c:	88 10                	mov    %dl,(%eax)
    115e:	e8 fc ff ff ff       	call   115f <ParseFldsInstr+0x51>
    1163:	89 45 f0             	mov    %eax,-0x10(%ebp)
    1166:	e8 fc ff ff ff       	call   1167 <ParseFldsInstr+0x59>
    116b:	89 45 ec             	mov    %eax,-0x14(%ebp)
    116e:	83 ec 0c             	sub    $0xc,%esp
    1171:	ff 75 ec             	pushl  -0x14(%ebp)
    1174:	e8 fc ff ff ff       	call   1175 <ParseFldsInstr+0x67>
    1179:	83 c4 10             	add    $0x10,%esp
    117c:	89 45 e8             	mov    %eax,-0x18(%ebp)
    117f:	83 ec 0c             	sub    $0xc,%esp
    1182:	6a 0c                	push   $0xc
    1184:	e8 fc ff ff ff       	call   1185 <ParseFldsInstr+0x77>
    1189:	83 c4 10             	add    $0x10,%esp
    118c:	89 45 e4             	mov    %eax,-0x1c(%ebp)
    118f:	8b 45 e4             	mov    -0x1c(%ebp),%eax
    1192:	8b 55 e8             	mov    -0x18(%ebp),%edx
    1195:	89 10                	mov    %edx,(%eax)
    1197:	83 ec 04             	sub    $0x4,%esp
    119a:	ff 75 d8             	pushl  -0x28(%ebp)
    119d:	ff 75 d4             	pushl  -0x2c(%ebp)
    11a0:	ff 75 e4             	pushl  -0x1c(%ebp)
    11a3:	6a 00                	push   $0x0
    11a5:	ff 75 f4             	pushl  -0xc(%ebp)
    11a8:	0f b7 45 d2          	movzwl -0x2e(%ebp),%eax
    11ac:	50                   	push   %eax
    11ad:	6a 00                	push   $0x0
    11af:	e8 fc ff ff ff       	call   11b0 <ParseFldsInstr+0xa2>
    11b4:	83 c4 20             	add    $0x20,%esp
    11b7:	89 45 e0             	mov    %eax,-0x20(%ebp)
    11ba:	c7 45 dc 00 00 00 00 	movl   $0x0,-0x24(%ebp)
    11c1:	8b 45 e0             	mov    -0x20(%ebp),%eax
    11c4:	c9                   	leave  
    11c5:	c3                   	ret    

000011c6 <ParseFldlInstr>:
    11c6:	55                   	push   %ebp
    11c7:	89 e5                	mov    %esp,%ebp
    11c9:	83 ec 38             	sub    $0x38,%esp
    11cc:	c7 45 d4 00 00 00 00 	movl   $0x0,-0x2c(%ebp)
    11d3:	c7 45 d8 00 00 00 00 	movl   $0x0,-0x28(%ebp)
    11da:	c6 45 d2 dd          	movb   $0xdd,-0x2e(%ebp)
    11de:	c6 45 d3 ff          	movb   $0xff,-0x2d(%ebp)
    11e2:	83 ec 0c             	sub    $0xc,%esp
    11e5:	6a 04                	push   $0x4
    11e7:	e8 fc ff ff ff       	call   11e8 <ParseFldlInstr+0x22>
    11ec:	83 c4 10             	add    $0x10,%esp
    11ef:	89 45 f4             	mov    %eax,-0xc(%ebp)
    11f2:	8b 45 f4             	mov    -0xc(%ebp),%eax
    11f5:	0f b6 10             	movzbl (%eax),%edx
    11f8:	83 e2 3f             	and    $0x3f,%edx
    11fb:	88 10                	mov    %dl,(%eax)
    11fd:	8b 45 f4             	mov    -0xc(%ebp),%eax
    1200:	0f b6 10             	movzbl (%eax),%edx
    1203:	83 e2 c7             	and    $0xffffffc7,%edx
    1206:	88 10                	mov    %dl,(%eax)
    1208:	8b 45 f4             	mov    -0xc(%ebp),%eax
    120b:	0f b6 10             	movzbl (%eax),%edx
    120e:	83 e2 f8             	and    $0xfffffff8,%edx
    1211:	83 ca 05             	or     $0x5,%edx
    1214:	88 10                	mov    %dl,(%eax)
    1216:	e8 fc ff ff ff       	call   1217 <ParseFldlInstr+0x51>
    121b:	89 45 f0             	mov    %eax,-0x10(%ebp)
    121e:	e8 fc ff ff ff       	call   121f <ParseFldlInstr+0x59>
    1223:	89 45 ec             	mov    %eax,-0x14(%ebp)
    1226:	83 ec 0c             	sub    $0xc,%esp
    1229:	ff 75 ec             	pushl  -0x14(%ebp)
    122c:	e8 fc ff ff ff       	call   122d <ParseFldlInstr+0x67>
    1231:	83 c4 10             	add    $0x10,%esp
    1234:	89 45 e8             	mov    %eax,-0x18(%ebp)
    1237:	83 ec 0c             	sub    $0xc,%esp
    123a:	6a 0c                	push   $0xc
    123c:	e8 fc ff ff ff       	call   123d <ParseFldlInstr+0x77>
    1241:	83 c4 10             	add    $0x10,%esp
    1244:	89 45 e4             	mov    %eax,-0x1c(%ebp)
    1247:	8b 45 e4             	mov    -0x1c(%ebp),%eax
    124a:	8b 55 e8             	mov    -0x18(%ebp),%edx
    124d:	89 10                	mov    %edx,(%eax)
    124f:	83 ec 04             	sub    $0x4,%esp
    1252:	ff 75 d8             	pushl  -0x28(%ebp)
    1255:	ff 75 d4             	pushl  -0x2c(%ebp)
    1258:	ff 75 e4             	pushl  -0x1c(%ebp)
    125b:	6a 00                	push   $0x0
    125d:	ff 75 f4             	pushl  -0xc(%ebp)
    1260:	0f b7 45 d2          	movzwl -0x2e(%ebp),%eax
    1264:	50                   	push   %eax
    1265:	6a 00                	push   $0x0
    1267:	e8 fc ff ff ff       	call   1268 <ParseFldlInstr+0xa2>
    126c:	83 c4 20             	add    $0x20,%esp
    126f:	89 45 e0             	mov    %eax,-0x20(%ebp)
    1272:	c7 45 dc 00 00 00 00 	movl   $0x0,-0x24(%ebp)
    1279:	8b 45 e0             	mov    -0x20(%ebp),%eax
    127c:	c9                   	leave  
    127d:	c3                   	ret    

0000127e <ParseFildlInstr>:
    127e:	55                   	push   %ebp
    127f:	89 e5                	mov    %esp,%ebp
    1281:	83 ec 38             	sub    $0x38,%esp
    1284:	c7 45 f4 00 00 00 00 	movl   $0x0,-0xc(%ebp)
    128b:	c6 45 da db          	movb   $0xdb,-0x26(%ebp)
    128f:	c6 45 db ff          	movb   $0xff,-0x25(%ebp)
    1293:	c7 45 f0 00 00 00 00 	movl   $0x0,-0x10(%ebp)
    129a:	c7 45 ec 00 00 00 00 	movl   $0x0,-0x14(%ebp)
    12a1:	c7 45 d0 00 00 00 00 	movl   $0x0,-0x30(%ebp)
    12a8:	c7 45 d4 00 00 00 00 	movl   $0x0,-0x2c(%ebp)
    12af:	83 ec 0c             	sub    $0xc,%esp
    12b2:	6a 04                	push   $0x4
    12b4:	e8 fc ff ff ff       	call   12b5 <ParseFildlInstr+0x37>
    12b9:	83 c4 10             	add    $0x10,%esp
    12bc:	89 45 f0             	mov    %eax,-0x10(%ebp)
    12bf:	8b 45 f0             	mov    -0x10(%ebp),%eax
    12c2:	0f b6 10             	movzbl (%eax),%edx
    12c5:	83 e2 c7             	and    $0xffffffc7,%edx
    12c8:	88 10                	mov    %dl,(%eax)
    12ca:	e8 fc ff ff ff       	call   12cb <ParseFildlInstr+0x4d>
    12cf:	89 45 e8             	mov    %eax,-0x18(%ebp)
    12d2:	83 ec 0c             	sub    $0xc,%esp
    12d5:	ff 75 e8             	pushl  -0x18(%ebp)
    12d8:	e8 fc ff ff ff       	call   12d9 <ParseFildlInstr+0x5b>
    12dd:	83 c4 10             	add    $0x10,%esp
    12e0:	89 45 e4             	mov    %eax,-0x1c(%ebp)
    12e3:	8b 45 e4             	mov    -0x1c(%ebp),%eax
    12e6:	8b 40 08             	mov    0x8(%eax),%eax
    12e9:	83 e0 03             	and    $0x3,%eax
    12ec:	8b 55 f0             	mov    -0x10(%ebp),%edx
    12ef:	c1 e0 06             	shl    $0x6,%eax
    12f2:	89 c1                	mov    %eax,%ecx
    12f4:	0f b6 02             	movzbl (%edx),%eax
    12f7:	83 e0 3f             	and    $0x3f,%eax
    12fa:	09 c8                	or     %ecx,%eax
    12fc:	88 02                	mov    %al,(%edx)
    12fe:	8b 45 e4             	mov    -0x1c(%ebp),%eax
    1301:	8b 40 0c             	mov    0xc(%eax),%eax
    1304:	83 e0 07             	and    $0x7,%eax
    1307:	8b 55 f0             	mov    -0x10(%ebp),%edx
    130a:	83 e0 07             	and    $0x7,%eax
    130d:	89 c1                	mov    %eax,%ecx
    130f:	0f b6 02             	movzbl (%edx),%eax
    1312:	83 e0 f8             	and    $0xfffffff8,%eax
    1315:	09 c8                	or     %ecx,%eax
    1317:	88 02                	mov    %al,(%edx)
    1319:	8b 45 e4             	mov    -0x1c(%ebp),%eax
    131c:	8b 00                	mov    (%eax),%eax
    131e:	83 ec 04             	sub    $0x4,%esp
    1321:	ff 75 d4             	pushl  -0x2c(%ebp)
    1324:	ff 75 d0             	pushl  -0x30(%ebp)
    1327:	50                   	push   %eax
    1328:	ff 75 ec             	pushl  -0x14(%ebp)
    132b:	ff 75 f0             	pushl  -0x10(%ebp)
    132e:	0f b7 45 da          	movzwl -0x26(%ebp),%eax
    1332:	50                   	push   %eax
    1333:	ff 75 f4             	pushl  -0xc(%ebp)
    1336:	e8 fc ff ff ff       	call   1337 <ParseFildlInstr+0xb9>
    133b:	83 c4 20             	add    $0x20,%esp
    133e:	89 45 e0             	mov    %eax,-0x20(%ebp)
    1341:	c7 45 dc 00 00 00 00 	movl   $0x0,-0x24(%ebp)
    1348:	8b 45 dc             	mov    -0x24(%ebp),%eax
    134b:	8d 50 01             	lea    0x1(%eax),%edx
    134e:	89 55 dc             	mov    %edx,-0x24(%ebp)
    1351:	8b 55 e0             	mov    -0x20(%ebp),%edx
    1354:	8d 48 08             	lea    0x8(%eax),%ecx
    1357:	8b 45 e8             	mov    -0x18(%ebp),%eax
    135a:	89 44 8a 04          	mov    %eax,0x4(%edx,%ecx,4)
    135e:	8b 45 e0             	mov    -0x20(%ebp),%eax
    1361:	c9                   	leave  
    1362:	c3                   	ret    

00001363 <ParseFildqInstr>:
    1363:	55                   	push   %ebp
    1364:	89 e5                	mov    %esp,%ebp
    1366:	83 ec 38             	sub    $0x38,%esp
    1369:	c7 45 f4 00 00 00 00 	movl   $0x0,-0xc(%ebp)
    1370:	c6 45 da df          	movb   $0xdf,-0x26(%ebp)
    1374:	c6 45 db ff          	movb   $0xff,-0x25(%ebp)
    1378:	c7 45 f0 00 00 00 00 	movl   $0x0,-0x10(%ebp)
    137f:	c7 45 ec 00 00 00 00 	movl   $0x0,-0x14(%ebp)
    1386:	c7 45 d0 00 00 00 00 	movl   $0x0,-0x30(%ebp)
    138d:	c7 45 d4 00 00 00 00 	movl   $0x0,-0x2c(%ebp)
    1394:	83 ec 0c             	sub    $0xc,%esp
    1397:	6a 04                	push   $0x4
    1399:	e8 fc ff ff ff       	call   139a <ParseFildqInstr+0x37>
    139e:	83 c4 10             	add    $0x10,%esp
    13a1:	89 45 f0             	mov    %eax,-0x10(%ebp)
    13a4:	8b 45 f0             	mov    -0x10(%ebp),%eax
    13a7:	0f b6 10             	movzbl (%eax),%edx
    13aa:	83 e2 c7             	and    $0xffffffc7,%edx
    13ad:	83 ca 28             	or     $0x28,%edx
    13b0:	88 10                	mov    %dl,(%eax)
    13b2:	e8 fc ff ff ff       	call   13b3 <ParseFildqInstr+0x50>
    13b7:	89 45 e8             	mov    %eax,-0x18(%ebp)
    13ba:	83 ec 0c             	sub    $0xc,%esp
    13bd:	ff 75 e8             	pushl  -0x18(%ebp)
    13c0:	e8 fc ff ff ff       	call   13c1 <ParseFildqInstr+0x5e>
    13c5:	83 c4 10             	add    $0x10,%esp
    13c8:	89 45 e4             	mov    %eax,-0x1c(%ebp)
    13cb:	8b 45 e4             	mov    -0x1c(%ebp),%eax
    13ce:	8b 40 08             	mov    0x8(%eax),%eax
    13d1:	83 e0 03             	and    $0x3,%eax
    13d4:	8b 55 f0             	mov    -0x10(%ebp),%edx
    13d7:	c1 e0 06             	shl    $0x6,%eax
    13da:	89 c1                	mov    %eax,%ecx
    13dc:	0f b6 02             	movzbl (%edx),%eax
    13df:	83 e0 3f             	and    $0x3f,%eax
    13e2:	09 c8                	or     %ecx,%eax
    13e4:	88 02                	mov    %al,(%edx)
    13e6:	8b 45 e4             	mov    -0x1c(%ebp),%eax
    13e9:	8b 40 0c             	mov    0xc(%eax),%eax
    13ec:	83 e0 07             	and    $0x7,%eax
    13ef:	8b 55 f0             	mov    -0x10(%ebp),%edx
    13f2:	83 e0 07             	and    $0x7,%eax
    13f5:	89 c1                	mov    %eax,%ecx
    13f7:	0f b6 02             	movzbl (%edx),%eax
    13fa:	83 e0 f8             	and    $0xfffffff8,%eax
    13fd:	09 c8                	or     %ecx,%eax
    13ff:	88 02                	mov    %al,(%edx)
    1401:	8b 45 e4             	mov    -0x1c(%ebp),%eax
    1404:	8b 00                	mov    (%eax),%eax
    1406:	83 ec 04             	sub    $0x4,%esp
    1409:	ff 75 d4             	pushl  -0x2c(%ebp)
    140c:	ff 75 d0             	pushl  -0x30(%ebp)
    140f:	50                   	push   %eax
    1410:	ff 75 ec             	pushl  -0x14(%ebp)
    1413:	ff 75 f0             	pushl  -0x10(%ebp)
    1416:	0f b7 45 da          	movzwl -0x26(%ebp),%eax
    141a:	50                   	push   %eax
    141b:	ff 75 f4             	pushl  -0xc(%ebp)
    141e:	e8 fc ff ff ff       	call   141f <ParseFildqInstr+0xbc>
    1423:	83 c4 20             	add    $0x20,%esp
    1426:	89 45 e0             	mov    %eax,-0x20(%ebp)
    1429:	c7 45 dc 00 00 00 00 	movl   $0x0,-0x24(%ebp)
    1430:	8b 45 dc             	mov    -0x24(%ebp),%eax
    1433:	8d 50 01             	lea    0x1(%eax),%edx
    1436:	89 55 dc             	mov    %edx,-0x24(%ebp)
    1439:	8b 55 e0             	mov    -0x20(%ebp),%edx
    143c:	8d 48 08             	lea    0x8(%eax),%ecx
    143f:	8b 45 e8             	mov    -0x18(%ebp),%eax
    1442:	89 44 8a 04          	mov    %eax,0x4(%edx,%ecx,4)
    1446:	8b 45 e0             	mov    -0x20(%ebp),%eax
    1449:	c9                   	leave  
    144a:	c3                   	ret    

0000144b <ParseFstpsInstr>:
    144b:	55                   	push   %ebp
    144c:	89 e5                	mov    %esp,%ebp
    144e:	83 ec 08             	sub    $0x8,%esp
    1451:	83 ec 08             	sub    $0x8,%esp
    1454:	68 d9 00 00 00       	push   $0xd9
    1459:	ff 75 08             	pushl  0x8(%ebp)
    145c:	e8 fc ff ff ff       	call   145d <ParseFstpsInstr+0x12>
    1461:	83 c4 10             	add    $0x10,%esp
    1464:	c9                   	leave  
    1465:	c3                   	ret    

00001466 <ParseFstplInstr>:
    1466:	55                   	push   %ebp
    1467:	89 e5                	mov    %esp,%ebp
    1469:	83 ec 08             	sub    $0x8,%esp
    146c:	83 ec 08             	sub    $0x8,%esp
    146f:	68 dd 00 00 00       	push   $0xdd
    1474:	ff 75 08             	pushl  0x8(%ebp)
    1477:	e8 fc ff ff ff       	call   1478 <ParseFstplInstr+0x12>
    147c:	83 c4 10             	add    $0x10,%esp
    147f:	c9                   	leave  
    1480:	c3                   	ret    

00001481 <ParseFstpInstr>:
    1481:	55                   	push   %ebp
    1482:	89 e5                	mov    %esp,%ebp
    1484:	83 ec 38             	sub    $0x38,%esp
    1487:	c7 45 f4 00 00 00 00 	movl   $0x0,-0xc(%ebp)
    148e:	c6 45 d6 dd          	movb   $0xdd,-0x2a(%ebp)
    1492:	c6 45 d7 d8          	movb   $0xd8,-0x29(%ebp)
    1496:	c7 45 f0 00 00 00 00 	movl   $0x0,-0x10(%ebp)
    149d:	c7 45 ec 00 00 00 00 	movl   $0x0,-0x14(%ebp)
    14a4:	c7 45 e8 00 00 00 00 	movl   $0x0,-0x18(%ebp)
    14ab:	c7 45 cc 00 00 00 00 	movl   $0x0,-0x34(%ebp)
    14b2:	c7 45 d0 00 00 00 00 	movl   $0x0,-0x30(%ebp)
    14b9:	e8 fc ff ff ff       	call   14ba <ParseFstpInstr+0x39>
    14be:	89 45 e4             	mov    %eax,-0x1c(%ebp)
    14c1:	0f b6 45 d7          	movzbl -0x29(%ebp),%eax
    14c5:	89 c2                	mov    %eax,%edx
    14c7:	8b 45 e4             	mov    -0x1c(%ebp),%eax
    14ca:	8b 00                	mov    (%eax),%eax
    14cc:	01 d0                	add    %edx,%eax
    14ce:	88 45 d7             	mov    %al,-0x29(%ebp)
    14d1:	83 ec 0c             	sub    $0xc,%esp
    14d4:	6a 0c                	push   $0xc
    14d6:	e8 fc ff ff ff       	call   14d7 <ParseFstpInstr+0x56>
    14db:	83 c4 10             	add    $0x10,%esp
    14de:	89 45 e0             	mov    %eax,-0x20(%ebp)
    14e1:	8b 45 e0             	mov    -0x20(%ebp),%eax
    14e4:	8b 55 f0             	mov    -0x10(%ebp),%edx
    14e7:	89 10                	mov    %edx,(%eax)
    14e9:	83 ec 04             	sub    $0x4,%esp
    14ec:	ff 75 d0             	pushl  -0x30(%ebp)
    14ef:	ff 75 cc             	pushl  -0x34(%ebp)
    14f2:	ff 75 e0             	pushl  -0x20(%ebp)
    14f5:	ff 75 e8             	pushl  -0x18(%ebp)
    14f8:	ff 75 ec             	pushl  -0x14(%ebp)
    14fb:	0f b7 45 d6          	movzwl -0x2a(%ebp),%eax
    14ff:	50                   	push   %eax
    1500:	ff 75 f4             	pushl  -0xc(%ebp)
    1503:	e8 fc ff ff ff       	call   1504 <ParseFstpInstr+0x83>
    1508:	83 c4 20             	add    $0x20,%esp
    150b:	89 45 dc             	mov    %eax,-0x24(%ebp)
    150e:	c7 45 d8 00 00 00 00 	movl   $0x0,-0x28(%ebp)
    1515:	8b 45 d8             	mov    -0x28(%ebp),%eax
    1518:	8d 50 01             	lea    0x1(%eax),%edx
    151b:	89 55 d8             	mov    %edx,-0x28(%ebp)
    151e:	8b 55 dc             	mov    -0x24(%ebp),%edx
    1521:	8d 48 08             	lea    0x8(%eax),%ecx
    1524:	8b 45 e4             	mov    -0x1c(%ebp),%eax
    1527:	89 44 8a 04          	mov    %eax,0x4(%edx,%ecx,4)
    152b:	8b 45 dc             	mov    -0x24(%ebp),%eax
    152e:	c9                   	leave  
    152f:	c3                   	ret    

00001530 <ParseFldcwInstr>:
    1530:	55                   	push   %ebp
    1531:	89 e5                	mov    %esp,%ebp
    1533:	83 ec 38             	sub    $0x38,%esp
    1536:	c7 45 f4 00 00 00 00 	movl   $0x0,-0xc(%ebp)
    153d:	c6 45 da d9          	movb   $0xd9,-0x26(%ebp)
    1541:	c6 45 db ff          	movb   $0xff,-0x25(%ebp)
    1545:	c7 45 f0 00 00 00 00 	movl   $0x0,-0x10(%ebp)
    154c:	c7 45 ec 00 00 00 00 	movl   $0x0,-0x14(%ebp)
    1553:	c7 45 d0 00 00 00 00 	movl   $0x0,-0x30(%ebp)
    155a:	c7 45 d4 00 00 00 00 	movl   $0x0,-0x2c(%ebp)
    1561:	83 ec 0c             	sub    $0xc,%esp
    1564:	6a 04                	push   $0x4
    1566:	e8 fc ff ff ff       	call   1567 <ParseFldcwInstr+0x37>
    156b:	83 c4 10             	add    $0x10,%esp
    156e:	89 45 f0             	mov    %eax,-0x10(%ebp)
    1571:	8b 45 f0             	mov    -0x10(%ebp),%eax
    1574:	0f b6 10             	movzbl (%eax),%edx
    1577:	83 e2 c7             	and    $0xffffffc7,%edx
    157a:	83 ca 28             	or     $0x28,%edx
    157d:	88 10                	mov    %dl,(%eax)
    157f:	e8 fc ff ff ff       	call   1580 <ParseFldcwInstr+0x50>
    1584:	89 45 e8             	mov    %eax,-0x18(%ebp)
    1587:	83 ec 0c             	sub    $0xc,%esp
    158a:	ff 75 e8             	pushl  -0x18(%ebp)
    158d:	e8 fc ff ff ff       	call   158e <ParseFldcwInstr+0x5e>
    1592:	83 c4 10             	add    $0x10,%esp
    1595:	89 45 e4             	mov    %eax,-0x1c(%ebp)
    1598:	8b 45 e4             	mov    -0x1c(%ebp),%eax
    159b:	8b 40 08             	mov    0x8(%eax),%eax
    159e:	83 e0 03             	and    $0x3,%eax
    15a1:	8b 55 f0             	mov    -0x10(%ebp),%edx
    15a4:	c1 e0 06             	shl    $0x6,%eax
    15a7:	89 c1                	mov    %eax,%ecx
    15a9:	0f b6 02             	movzbl (%edx),%eax
    15ac:	83 e0 3f             	and    $0x3f,%eax
    15af:	09 c8                	or     %ecx,%eax
    15b1:	88 02                	mov    %al,(%edx)
    15b3:	8b 45 e4             	mov    -0x1c(%ebp),%eax
    15b6:	8b 40 0c             	mov    0xc(%eax),%eax
    15b9:	83 e0 07             	and    $0x7,%eax
    15bc:	8b 55 f0             	mov    -0x10(%ebp),%edx
    15bf:	83 e0 07             	and    $0x7,%eax
    15c2:	89 c1                	mov    %eax,%ecx
    15c4:	0f b6 02             	movzbl (%edx),%eax
    15c7:	83 e0 f8             	and    $0xfffffff8,%eax
    15ca:	09 c8                	or     %ecx,%eax
    15cc:	88 02                	mov    %al,(%edx)
    15ce:	8b 45 e4             	mov    -0x1c(%ebp),%eax
    15d1:	8b 00                	mov    (%eax),%eax
    15d3:	83 ec 04             	sub    $0x4,%esp
    15d6:	ff 75 d4             	pushl  -0x2c(%ebp)
    15d9:	ff 75 d0             	pushl  -0x30(%ebp)
    15dc:	50                   	push   %eax
    15dd:	ff 75 ec             	pushl  -0x14(%ebp)
    15e0:	ff 75 f0             	pushl  -0x10(%ebp)
    15e3:	0f b7 45 da          	movzwl -0x26(%ebp),%eax
    15e7:	50                   	push   %eax
    15e8:	ff 75 f4             	pushl  -0xc(%ebp)
    15eb:	e8 fc ff ff ff       	call   15ec <ParseFldcwInstr+0xbc>
    15f0:	83 c4 20             	add    $0x20,%esp
    15f3:	89 45 e0             	mov    %eax,-0x20(%ebp)
    15f6:	c7 45 dc 00 00 00 00 	movl   $0x0,-0x24(%ebp)
    15fd:	8b 45 dc             	mov    -0x24(%ebp),%eax
    1600:	8d 50 01             	lea    0x1(%eax),%edx
    1603:	89 55 dc             	mov    %edx,-0x24(%ebp)
    1606:	8b 55 e0             	mov    -0x20(%ebp),%edx
    1609:	8d 48 08             	lea    0x8(%eax),%ecx
    160c:	8b 45 e8             	mov    -0x18(%ebp),%eax
    160f:	89 44 8a 04          	mov    %eax,0x4(%edx,%ecx,4)
    1613:	8b 45 e0             	mov    -0x20(%ebp),%eax
    1616:	c9                   	leave  
    1617:	c3                   	ret    

00001618 <ParseFistplInstr>:
    1618:	55                   	push   %ebp
    1619:	89 e5                	mov    %esp,%ebp
    161b:	83 ec 08             	sub    $0x8,%esp
    161e:	83 ec 04             	sub    $0x4,%esp
    1621:	6a 03                	push   $0x3
    1623:	68 db 00 00 00       	push   $0xdb
    1628:	ff 75 08             	pushl  0x8(%ebp)
    162b:	e8 fc ff ff ff       	call   162c <ParseFistplInstr+0x14>
    1630:	83 c4 10             	add    $0x10,%esp
    1633:	c9                   	leave  
    1634:	c3                   	ret    

00001635 <ParseFistpllInstr>:
    1635:	55                   	push   %ebp
    1636:	89 e5                	mov    %esp,%ebp
    1638:	83 ec 08             	sub    $0x8,%esp
    163b:	83 ec 04             	sub    $0x4,%esp
    163e:	6a 07                	push   $0x7
    1640:	68 df 00 00 00       	push   $0xdf
    1645:	ff 75 08             	pushl  0x8(%ebp)
    1648:	e8 fc ff ff ff       	call   1649 <ParseFistpllInstr+0x14>
    164d:	83 c4 10             	add    $0x10,%esp
    1650:	c9                   	leave  
    1651:	c3                   	ret    

00001652 <ParseFstsInstr>:
    1652:	55                   	push   %ebp
    1653:	89 e5                	mov    %esp,%ebp
    1655:	83 ec 38             	sub    $0x38,%esp
    1658:	c7 45 f4 00 00 00 00 	movl   $0x0,-0xc(%ebp)
    165f:	c6 45 da d9          	movb   $0xd9,-0x26(%ebp)
    1663:	c6 45 db ff          	movb   $0xff,-0x25(%ebp)
    1667:	c7 45 f0 00 00 00 00 	movl   $0x0,-0x10(%ebp)
    166e:	c7 45 ec 00 00 00 00 	movl   $0x0,-0x14(%ebp)
    1675:	c7 45 d0 00 00 00 00 	movl   $0x0,-0x30(%ebp)
    167c:	c7 45 d4 00 00 00 00 	movl   $0x0,-0x2c(%ebp)
    1683:	83 ec 0c             	sub    $0xc,%esp
    1686:	6a 04                	push   $0x4
    1688:	e8 fc ff ff ff       	call   1689 <ParseFstsInstr+0x37>
    168d:	83 c4 10             	add    $0x10,%esp
    1690:	89 45 f0             	mov    %eax,-0x10(%ebp)
    1693:	8b 45 f0             	mov    -0x10(%ebp),%eax
    1696:	0f b6 10             	movzbl (%eax),%edx
    1699:	83 e2 c7             	and    $0xffffffc7,%edx
    169c:	83 ca 10             	or     $0x10,%edx
    169f:	88 10                	mov    %dl,(%eax)
    16a1:	e8 fc ff ff ff       	call   16a2 <ParseFstsInstr+0x50>
    16a6:	89 45 e8             	mov    %eax,-0x18(%ebp)
    16a9:	83 ec 0c             	sub    $0xc,%esp
    16ac:	ff 75 e8             	pushl  -0x18(%ebp)
    16af:	e8 fc ff ff ff       	call   16b0 <ParseFstsInstr+0x5e>
    16b4:	83 c4 10             	add    $0x10,%esp
    16b7:	89 45 e4             	mov    %eax,-0x1c(%ebp)
    16ba:	8b 45 e4             	mov    -0x1c(%ebp),%eax
    16bd:	8b 40 08             	mov    0x8(%eax),%eax
    16c0:	83 e0 03             	and    $0x3,%eax
    16c3:	8b 55 f0             	mov    -0x10(%ebp),%edx
    16c6:	c1 e0 06             	shl    $0x6,%eax
    16c9:	89 c1                	mov    %eax,%ecx
    16cb:	0f b6 02             	movzbl (%edx),%eax
    16ce:	83 e0 3f             	and    $0x3f,%eax
    16d1:	09 c8                	or     %ecx,%eax
    16d3:	88 02                	mov    %al,(%edx)
    16d5:	8b 45 e4             	mov    -0x1c(%ebp),%eax
    16d8:	8b 40 0c             	mov    0xc(%eax),%eax
    16db:	83 e0 07             	and    $0x7,%eax
    16de:	8b 55 f0             	mov    -0x10(%ebp),%edx
    16e1:	83 e0 07             	and    $0x7,%eax
    16e4:	89 c1                	mov    %eax,%ecx
    16e6:	0f b6 02             	movzbl (%edx),%eax
    16e9:	83 e0 f8             	and    $0xfffffff8,%eax
    16ec:	09 c8                	or     %ecx,%eax
    16ee:	88 02                	mov    %al,(%edx)
    16f0:	8b 45 e4             	mov    -0x1c(%ebp),%eax
    16f3:	8b 00                	mov    (%eax),%eax
    16f5:	83 ec 04             	sub    $0x4,%esp
    16f8:	ff 75 d4             	pushl  -0x2c(%ebp)
    16fb:	ff 75 d0             	pushl  -0x30(%ebp)
    16fe:	50                   	push   %eax
    16ff:	ff 75 ec             	pushl  -0x14(%ebp)
    1702:	ff 75 f0             	pushl  -0x10(%ebp)
    1705:	0f b7 45 da          	movzwl -0x26(%ebp),%eax
    1709:	50                   	push   %eax
    170a:	ff 75 f4             	pushl  -0xc(%ebp)
    170d:	e8 fc ff ff ff       	call   170e <ParseFstsInstr+0xbc>
    1712:	83 c4 20             	add    $0x20,%esp
    1715:	89 45 e0             	mov    %eax,-0x20(%ebp)
    1718:	c7 45 dc 00 00 00 00 	movl   $0x0,-0x24(%ebp)
    171f:	8b 45 dc             	mov    -0x24(%ebp),%eax
    1722:	8d 50 01             	lea    0x1(%eax),%edx
    1725:	89 55 dc             	mov    %edx,-0x24(%ebp)
    1728:	8b 55 e0             	mov    -0x20(%ebp),%edx
    172b:	8d 48 08             	lea    0x8(%eax),%ecx
    172e:	8b 45 e8             	mov    -0x18(%ebp),%eax
    1731:	89 44 8a 04          	mov    %eax,0x4(%edx,%ecx,4)
    1735:	8b 45 e0             	mov    -0x20(%ebp),%eax
    1738:	c9                   	leave  
    1739:	c3                   	ret    

0000173a <ParseFstlInstr>:
    173a:	55                   	push   %ebp
    173b:	89 e5                	mov    %esp,%ebp
    173d:	83 ec 38             	sub    $0x38,%esp
    1740:	c7 45 f4 00 00 00 00 	movl   $0x0,-0xc(%ebp)
    1747:	c6 45 da dd          	movb   $0xdd,-0x26(%ebp)
    174b:	c6 45 db ff          	movb   $0xff,-0x25(%ebp)
    174f:	c7 45 f0 00 00 00 00 	movl   $0x0,-0x10(%ebp)
    1756:	c7 45 ec 00 00 00 00 	movl   $0x0,-0x14(%ebp)
    175d:	c7 45 d0 00 00 00 00 	movl   $0x0,-0x30(%ebp)
    1764:	c7 45 d4 00 00 00 00 	movl   $0x0,-0x2c(%ebp)
    176b:	83 ec 0c             	sub    $0xc,%esp
    176e:	6a 04                	push   $0x4
    1770:	e8 fc ff ff ff       	call   1771 <ParseFstlInstr+0x37>
    1775:	83 c4 10             	add    $0x10,%esp
    1778:	89 45 f0             	mov    %eax,-0x10(%ebp)
    177b:	8b 45 f0             	mov    -0x10(%ebp),%eax
    177e:	0f b6 10             	movzbl (%eax),%edx
    1781:	83 e2 c7             	and    $0xffffffc7,%edx
    1784:	83 ca 10             	or     $0x10,%edx
    1787:	88 10                	mov    %dl,(%eax)
    1789:	e8 fc ff ff ff       	call   178a <ParseFstlInstr+0x50>
    178e:	89 45 e8             	mov    %eax,-0x18(%ebp)
    1791:	83 ec 0c             	sub    $0xc,%esp
    1794:	ff 75 e8             	pushl  -0x18(%ebp)
    1797:	e8 fc ff ff ff       	call   1798 <ParseFstlInstr+0x5e>
    179c:	83 c4 10             	add    $0x10,%esp
    179f:	89 45 e4             	mov    %eax,-0x1c(%ebp)
    17a2:	8b 45 e4             	mov    -0x1c(%ebp),%eax
    17a5:	8b 40 08             	mov    0x8(%eax),%eax
    17a8:	83 e0 03             	and    $0x3,%eax
    17ab:	8b 55 f0             	mov    -0x10(%ebp),%edx
    17ae:	c1 e0 06             	shl    $0x6,%eax
    17b1:	89 c1                	mov    %eax,%ecx
    17b3:	0f b6 02             	movzbl (%edx),%eax
    17b6:	83 e0 3f             	and    $0x3f,%eax
    17b9:	09 c8                	or     %ecx,%eax
    17bb:	88 02                	mov    %al,(%edx)
    17bd:	8b 45 e4             	mov    -0x1c(%ebp),%eax
    17c0:	8b 40 0c             	mov    0xc(%eax),%eax
    17c3:	83 e0 07             	and    $0x7,%eax
    17c6:	8b 55 f0             	mov    -0x10(%ebp),%edx
    17c9:	83 e0 07             	and    $0x7,%eax
    17cc:	89 c1                	mov    %eax,%ecx
    17ce:	0f b6 02             	movzbl (%edx),%eax
    17d1:	83 e0 f8             	and    $0xfffffff8,%eax
    17d4:	09 c8                	or     %ecx,%eax
    17d6:	88 02                	mov    %al,(%edx)
    17d8:	8b 45 e4             	mov    -0x1c(%ebp),%eax
    17db:	8b 00                	mov    (%eax),%eax
    17dd:	83 ec 04             	sub    $0x4,%esp
    17e0:	ff 75 d4             	pushl  -0x2c(%ebp)
    17e3:	ff 75 d0             	pushl  -0x30(%ebp)
    17e6:	50                   	push   %eax
    17e7:	ff 75 ec             	pushl  -0x14(%ebp)
    17ea:	ff 75 f0             	pushl  -0x10(%ebp)
    17ed:	0f b7 45 da          	movzwl -0x26(%ebp),%eax
    17f1:	50                   	push   %eax
    17f2:	ff 75 f4             	pushl  -0xc(%ebp)
    17f5:	e8 fc ff ff ff       	call   17f6 <ParseFstlInstr+0xbc>
    17fa:	83 c4 20             	add    $0x20,%esp
    17fd:	89 45 e0             	mov    %eax,-0x20(%ebp)
    1800:	c7 45 dc 00 00 00 00 	movl   $0x0,-0x24(%ebp)
    1807:	8b 45 dc             	mov    -0x24(%ebp),%eax
    180a:	8d 50 01             	lea    0x1(%eax),%edx
    180d:	89 55 dc             	mov    %edx,-0x24(%ebp)
    1810:	8b 55 e0             	mov    -0x20(%ebp),%edx
    1813:	8d 48 08             	lea    0x8(%eax),%ecx
    1816:	8b 45 e8             	mov    -0x18(%ebp),%eax
    1819:	89 44 8a 04          	mov    %eax,0x4(%edx,%ecx,4)
    181d:	8b 45 e0             	mov    -0x20(%ebp),%eax
    1820:	c9                   	leave  
    1821:	c3                   	ret    

00001822 <ParseFmulsInstr>:
    1822:	55                   	push   %ebp
    1823:	89 e5                	mov    %esp,%ebp
    1825:	83 ec 38             	sub    $0x38,%esp
    1828:	c6 45 da d8          	movb   $0xd8,-0x26(%ebp)
    182c:	c6 45 db ff          	movb   $0xff,-0x25(%ebp)
    1830:	c7 45 d0 00 00 00 00 	movl   $0x0,-0x30(%ebp)
    1837:	c7 45 d4 00 00 00 00 	movl   $0x0,-0x2c(%ebp)
    183e:	83 ec 0c             	sub    $0xc,%esp
    1841:	6a 04                	push   $0x4
    1843:	e8 fc ff ff ff       	call   1844 <ParseFmulsInstr+0x22>
    1848:	83 c4 10             	add    $0x10,%esp
    184b:	89 45 f4             	mov    %eax,-0xc(%ebp)
    184e:	8b 45 f4             	mov    -0xc(%ebp),%eax
    1851:	0f b6 10             	movzbl (%eax),%edx
    1854:	83 e2 3f             	and    $0x3f,%edx
    1857:	88 10                	mov    %dl,(%eax)
    1859:	8b 45 f4             	mov    -0xc(%ebp),%eax
    185c:	0f b6 10             	movzbl (%eax),%edx
    185f:	83 e2 c7             	and    $0xffffffc7,%edx
    1862:	83 ca 30             	or     $0x30,%edx
    1865:	88 10                	mov    %dl,(%eax)
    1867:	8b 45 f4             	mov    -0xc(%ebp),%eax
    186a:	0f b6 10             	movzbl (%eax),%edx
    186d:	83 e2 f8             	and    $0xfffffff8,%edx
    1870:	83 ca 05             	or     $0x5,%edx
    1873:	88 10                	mov    %dl,(%eax)
    1875:	e8 fc ff ff ff       	call   1876 <ParseFmulsInstr+0x54>
    187a:	89 45 f0             	mov    %eax,-0x10(%ebp)
    187d:	e8 fc ff ff ff       	call   187e <ParseFmulsInstr+0x5c>
    1882:	89 45 ec             	mov    %eax,-0x14(%ebp)
    1885:	83 ec 0c             	sub    $0xc,%esp
    1888:	ff 75 ec             	pushl  -0x14(%ebp)
    188b:	e8 fc ff ff ff       	call   188c <ParseFmulsInstr+0x6a>
    1890:	83 c4 10             	add    $0x10,%esp
    1893:	89 45 e8             	mov    %eax,-0x18(%ebp)
    1896:	83 ec 0c             	sub    $0xc,%esp
    1899:	6a 0c                	push   $0xc
    189b:	e8 fc ff ff ff       	call   189c <ParseFmulsInstr+0x7a>
    18a0:	83 c4 10             	add    $0x10,%esp
    18a3:	89 45 e4             	mov    %eax,-0x1c(%ebp)
    18a6:	8b 45 e4             	mov    -0x1c(%ebp),%eax
    18a9:	8b 55 e8             	mov    -0x18(%ebp),%edx
    18ac:	89 10                	mov    %edx,(%eax)
    18ae:	83 ec 04             	sub    $0x4,%esp
    18b1:	ff 75 d4             	pushl  -0x2c(%ebp)
    18b4:	ff 75 d0             	pushl  -0x30(%ebp)
    18b7:	ff 75 e4             	pushl  -0x1c(%ebp)
    18ba:	6a 00                	push   $0x0
    18bc:	ff 75 f4             	pushl  -0xc(%ebp)
    18bf:	0f b7 45 da          	movzwl -0x26(%ebp),%eax
    18c3:	50                   	push   %eax
    18c4:	6a 00                	push   $0x0
    18c6:	e8 fc ff ff ff       	call   18c7 <ParseFmulsInstr+0xa5>
    18cb:	83 c4 20             	add    $0x20,%esp
    18ce:	89 45 e0             	mov    %eax,-0x20(%ebp)
    18d1:	c7 45 dc 00 00 00 00 	movl   $0x0,-0x24(%ebp)
    18d8:	8b 45 e0             	mov    -0x20(%ebp),%eax
    18db:	c9                   	leave  
    18dc:	c3                   	ret    

000018dd <ParseFmullInstr>:
    18dd:	55                   	push   %ebp
    18de:	89 e5                	mov    %esp,%ebp
    18e0:	83 ec 38             	sub    $0x38,%esp
    18e3:	c6 45 da dc          	movb   $0xdc,-0x26(%ebp)
    18e7:	c6 45 db ff          	movb   $0xff,-0x25(%ebp)
    18eb:	c7 45 d0 00 00 00 00 	movl   $0x0,-0x30(%ebp)
    18f2:	c7 45 d4 00 00 00 00 	movl   $0x0,-0x2c(%ebp)
    18f9:	83 ec 0c             	sub    $0xc,%esp
    18fc:	6a 04                	push   $0x4
    18fe:	e8 fc ff ff ff       	call   18ff <ParseFmullInstr+0x22>
    1903:	83 c4 10             	add    $0x10,%esp
    1906:	89 45 f4             	mov    %eax,-0xc(%ebp)
    1909:	8b 45 f4             	mov    -0xc(%ebp),%eax
    190c:	0f b6 10             	movzbl (%eax),%edx
    190f:	83 e2 3f             	and    $0x3f,%edx
    1912:	88 10                	mov    %dl,(%eax)
    1914:	8b 45 f4             	mov    -0xc(%ebp),%eax
    1917:	0f b6 10             	movzbl (%eax),%edx
    191a:	83 e2 c7             	and    $0xffffffc7,%edx
    191d:	83 ca 08             	or     $0x8,%edx
    1920:	88 10                	mov    %dl,(%eax)
    1922:	8b 45 f4             	mov    -0xc(%ebp),%eax
    1925:	0f b6 10             	movzbl (%eax),%edx
    1928:	83 e2 f8             	and    $0xfffffff8,%edx
    192b:	83 ca 05             	or     $0x5,%edx
    192e:	88 10                	mov    %dl,(%eax)
    1930:	e8 fc ff ff ff       	call   1931 <ParseFmullInstr+0x54>
    1935:	89 45 f0             	mov    %eax,-0x10(%ebp)
    1938:	e8 fc ff ff ff       	call   1939 <ParseFmullInstr+0x5c>
    193d:	89 45 ec             	mov    %eax,-0x14(%ebp)
    1940:	83 ec 0c             	sub    $0xc,%esp
    1943:	ff 75 ec             	pushl  -0x14(%ebp)
    1946:	e8 fc ff ff ff       	call   1947 <ParseFmullInstr+0x6a>
    194b:	83 c4 10             	add    $0x10,%esp
    194e:	89 45 e8             	mov    %eax,-0x18(%ebp)
    1951:	83 ec 0c             	sub    $0xc,%esp
    1954:	6a 0c                	push   $0xc
    1956:	e8 fc ff ff ff       	call   1957 <ParseFmullInstr+0x7a>
    195b:	83 c4 10             	add    $0x10,%esp
    195e:	89 45 e4             	mov    %eax,-0x1c(%ebp)
    1961:	8b 45 e4             	mov    -0x1c(%ebp),%eax
    1964:	8b 55 e8             	mov    -0x18(%ebp),%edx
    1967:	89 10                	mov    %edx,(%eax)
    1969:	83 ec 04             	sub    $0x4,%esp
    196c:	ff 75 d4             	pushl  -0x2c(%ebp)
    196f:	ff 75 d0             	pushl  -0x30(%ebp)
    1972:	ff 75 e4             	pushl  -0x1c(%ebp)
    1975:	6a 00                	push   $0x0
    1977:	ff 75 f4             	pushl  -0xc(%ebp)
    197a:	0f b7 45 da          	movzwl -0x26(%ebp),%eax
    197e:	50                   	push   %eax
    197f:	6a 00                	push   $0x0
    1981:	e8 fc ff ff ff       	call   1982 <ParseFmullInstr+0xa5>
    1986:	83 c4 20             	add    $0x20,%esp
    1989:	89 45 e0             	mov    %eax,-0x20(%ebp)
    198c:	c7 45 dc 00 00 00 00 	movl   $0x0,-0x24(%ebp)
    1993:	8b 45 e0             	mov    -0x20(%ebp),%eax
    1996:	c9                   	leave  
    1997:	c3                   	ret    

00001998 <ParseCdqInstr>:
    1998:	55                   	push   %ebp
    1999:	89 e5                	mov    %esp,%ebp
    199b:	83 ec 28             	sub    $0x28,%esp
    199e:	c6 45 ee 99          	movb   $0x99,-0x12(%ebp)
    19a2:	c6 45 ef ff          	movb   $0xff,-0x11(%ebp)
    19a6:	c7 45 e4 00 00 00 00 	movl   $0x0,-0x1c(%ebp)
    19ad:	c7 45 e8 00 00 00 00 	movl   $0x0,-0x18(%ebp)
    19b4:	83 ec 04             	sub    $0x4,%esp
    19b7:	ff 75 e8             	pushl  -0x18(%ebp)
    19ba:	ff 75 e4             	pushl  -0x1c(%ebp)
    19bd:	6a 00                	push   $0x0
    19bf:	6a 00                	push   $0x0
    19c1:	6a 00                	push   $0x0
    19c3:	0f b7 45 ee          	movzwl -0x12(%ebp),%eax
    19c7:	50                   	push   %eax
    19c8:	6a 00                	push   $0x0
    19ca:	e8 fc ff ff ff       	call   19cb <ParseCdqInstr+0x33>
    19cf:	83 c4 20             	add    $0x20,%esp
    19d2:	89 45 f4             	mov    %eax,-0xc(%ebp)
    19d5:	c7 45 f0 00 00 00 00 	movl   $0x0,-0x10(%ebp)
    19dc:	8b 45 f4             	mov    -0xc(%ebp),%eax
    19df:	c9                   	leave  
    19e0:	c3                   	ret    

000019e1 <ParseRetInstr>:
    19e1:	55                   	push   %ebp
    19e2:	89 e5                	mov    %esp,%ebp
    19e4:	83 ec 28             	sub    $0x28,%esp
    19e7:	e8 fc ff ff ff       	call   19e8 <ParseRetInstr+0x7>
    19ec:	c6 45 ee c3          	movb   $0xc3,-0x12(%ebp)
    19f0:	c6 45 ef ff          	movb   $0xff,-0x11(%ebp)
    19f4:	c7 45 e4 00 00 00 00 	movl   $0x0,-0x1c(%ebp)
    19fb:	c7 45 e8 00 00 00 00 	movl   $0x0,-0x18(%ebp)
    1a02:	83 ec 04             	sub    $0x4,%esp
    1a05:	ff 75 e8             	pushl  -0x18(%ebp)
    1a08:	ff 75 e4             	pushl  -0x1c(%ebp)
    1a0b:	6a 00                	push   $0x0
    1a0d:	6a 00                	push   $0x0
    1a0f:	6a 00                	push   $0x0
    1a11:	0f b7 45 ee          	movzwl -0x12(%ebp),%eax
    1a15:	50                   	push   %eax
    1a16:	6a 00                	push   $0x0
    1a18:	e8 fc ff ff ff       	call   1a19 <ParseRetInstr+0x38>
    1a1d:	83 c4 20             	add    $0x20,%esp
    1a20:	89 45 f4             	mov    %eax,-0xc(%ebp)
    1a23:	c7 45 f0 00 00 00 00 	movl   $0x0,-0x10(%ebp)
    1a2a:	8b 45 f4             	mov    -0xc(%ebp),%eax
    1a2d:	c9                   	leave  
    1a2e:	c3                   	ret    

00001a2f <ParseMullInstr>:
    1a2f:	55                   	push   %ebp
    1a30:	89 e5                	mov    %esp,%ebp
    1a32:	83 ec 48             	sub    $0x48,%esp
    1a35:	c7 45 ec 00 00 00 00 	movl   $0x0,-0x14(%ebp)
    1a3c:	c6 45 ca ff          	movb   $0xff,-0x36(%ebp)
    1a40:	c6 45 cb ff          	movb   $0xff,-0x35(%ebp)
    1a44:	c7 45 e8 00 00 00 00 	movl   $0x0,-0x18(%ebp)
    1a4b:	c7 45 f4 00 00 00 00 	movl   $0x0,-0xc(%ebp)
    1a52:	c7 45 f0 00 00 00 00 	movl   $0x0,-0x10(%ebp)
    1a59:	c7 45 c0 00 00 00 00 	movl   $0x0,-0x40(%ebp)
    1a60:	c7 45 c4 00 00 00 00 	movl   $0x0,-0x3c(%ebp)
    1a67:	c6 45 ca f7          	movb   $0xf7,-0x36(%ebp)
    1a6b:	83 ec 0c             	sub    $0xc,%esp
    1a6e:	6a 04                	push   $0x4
    1a70:	e8 fc ff ff ff       	call   1a71 <ParseMullInstr+0x42>
    1a75:	83 c4 10             	add    $0x10,%esp
    1a78:	89 45 e8             	mov    %eax,-0x18(%ebp)
    1a7b:	8b 45 e8             	mov    -0x18(%ebp),%eax
    1a7e:	0f b6 10             	movzbl (%eax),%edx
    1a81:	83 e2 c7             	and    $0xffffffc7,%edx
    1a84:	83 ca 20             	or     $0x20,%edx
    1a87:	88 10                	mov    %dl,(%eax)
    1a89:	e8 fc ff ff ff       	call   1a8a <ParseMullInstr+0x5b>
    1a8e:	89 45 e4             	mov    %eax,-0x1c(%ebp)
    1a91:	8b 45 e4             	mov    -0x1c(%ebp),%eax
    1a94:	8b 40 08             	mov    0x8(%eax),%eax
    1a97:	89 45 e0             	mov    %eax,-0x20(%ebp)
    1a9a:	83 7d e0 04          	cmpl   $0x4,-0x20(%ebp)
    1a9e:	75 37                	jne    1ad7 <ParseMullInstr+0xa8>
    1aa0:	8b 45 e4             	mov    -0x1c(%ebp),%eax
    1aa3:	8b 00                	mov    (%eax),%eax
    1aa5:	89 45 dc             	mov    %eax,-0x24(%ebp)
    1aa8:	8b 45 dc             	mov    -0x24(%ebp),%eax
    1aab:	0f b6 40 01          	movzbl 0x1(%eax),%eax
    1aaf:	88 45 db             	mov    %al,-0x25(%ebp)
    1ab2:	80 7d db 20          	cmpb   $0x20,-0x25(%ebp)
    1ab6:	75 77                	jne    1b2f <ParseMullInstr+0x100>
    1ab8:	8b 45 dc             	mov    -0x24(%ebp),%eax
    1abb:	0f b6 00             	movzbl (%eax),%eax
    1abe:	83 e0 07             	and    $0x7,%eax
    1ac1:	89 c2                	mov    %eax,%edx
    1ac3:	8b 45 e8             	mov    -0x18(%ebp),%eax
    1ac6:	89 d1                	mov    %edx,%ecx
    1ac8:	83 e1 07             	and    $0x7,%ecx
    1acb:	0f b6 10             	movzbl (%eax),%edx
    1ace:	83 e2 f8             	and    $0xfffffff8,%edx
    1ad1:	09 ca                	or     %ecx,%edx
    1ad3:	88 10                	mov    %dl,(%eax)
    1ad5:	eb 58                	jmp    1b2f <ParseMullInstr+0x100>
    1ad7:	83 ec 0c             	sub    $0xc,%esp
    1ada:	ff 75 e4             	pushl  -0x1c(%ebp)
    1add:	e8 fc ff ff ff       	call   1ade <ParseMullInstr+0xaf>
    1ae2:	83 c4 10             	add    $0x10,%esp
    1ae5:	89 45 d4             	mov    %eax,-0x2c(%ebp)
    1ae8:	8b 45 d4             	mov    -0x2c(%ebp),%eax
    1aeb:	8b 40 08             	mov    0x8(%eax),%eax
    1aee:	83 e0 03             	and    $0x3,%eax
    1af1:	8b 55 e8             	mov    -0x18(%ebp),%edx
    1af4:	c1 e0 06             	shl    $0x6,%eax
    1af7:	89 c1                	mov    %eax,%ecx
    1af9:	0f b6 02             	movzbl (%edx),%eax
    1afc:	83 e0 3f             	and    $0x3f,%eax
    1aff:	09 c8                	or     %ecx,%eax
    1b01:	88 02                	mov    %al,(%edx)
    1b03:	8b 45 d4             	mov    -0x2c(%ebp),%eax
    1b06:	8b 40 0c             	mov    0xc(%eax),%eax
    1b09:	83 e0 07             	and    $0x7,%eax
    1b0c:	8b 55 e8             	mov    -0x18(%ebp),%edx
    1b0f:	83 e0 07             	and    $0x7,%eax
    1b12:	89 c1                	mov    %eax,%ecx
    1b14:	0f b6 02             	movzbl (%edx),%eax
    1b17:	83 e0 f8             	and    $0xfffffff8,%eax
    1b1a:	09 c8                	or     %ecx,%eax
    1b1c:	88 02                	mov    %al,(%edx)
    1b1e:	8b 45 d4             	mov    -0x2c(%ebp),%eax
    1b21:	8b 00                	mov    (%eax),%eax
    1b23:	89 45 f0             	mov    %eax,-0x10(%ebp)
    1b26:	8b 45 d4             	mov    -0x2c(%ebp),%eax
    1b29:	8b 40 04             	mov    0x4(%eax),%eax
    1b2c:	89 45 f4             	mov    %eax,-0xc(%ebp)
    1b2f:	83 ec 04             	sub    $0x4,%esp
    1b32:	ff 75 c4             	pushl  -0x3c(%ebp)
    1b35:	ff 75 c0             	pushl  -0x40(%ebp)
    1b38:	ff 75 f0             	pushl  -0x10(%ebp)
    1b3b:	ff 75 f4             	pushl  -0xc(%ebp)
    1b3e:	ff 75 e8             	pushl  -0x18(%ebp)
    1b41:	0f b7 45 ca          	movzwl -0x36(%ebp),%eax
    1b45:	50                   	push   %eax
    1b46:	ff 75 ec             	pushl  -0x14(%ebp)
    1b49:	e8 fc ff ff ff       	call   1b4a <ParseMullInstr+0x11b>
    1b4e:	83 c4 20             	add    $0x20,%esp
    1b51:	89 45 d0             	mov    %eax,-0x30(%ebp)
    1b54:	c7 45 cc 00 00 00 00 	movl   $0x0,-0x34(%ebp)
    1b5b:	8b 45 cc             	mov    -0x34(%ebp),%eax
    1b5e:	8d 50 01             	lea    0x1(%eax),%edx
    1b61:	89 55 cc             	mov    %edx,-0x34(%ebp)
    1b64:	8b 55 d0             	mov    -0x30(%ebp),%edx
    1b67:	8d 48 08             	lea    0x8(%eax),%ecx
    1b6a:	8b 45 e4             	mov    -0x1c(%ebp),%eax
    1b6d:	89 44 8a 04          	mov    %eax,0x4(%edx,%ecx,4)
    1b71:	8b 45 d0             	mov    -0x30(%ebp),%eax
    1b74:	c9                   	leave  
    1b75:	c3                   	ret    

00001b76 <ParseIdivlInstr>:
    1b76:	55                   	push   %ebp
    1b77:	89 e5                	mov    %esp,%ebp
    1b79:	83 ec 48             	sub    $0x48,%esp
    1b7c:	c7 45 ec 00 00 00 00 	movl   $0x0,-0x14(%ebp)
    1b83:	c6 45 ca ff          	movb   $0xff,-0x36(%ebp)
    1b87:	c6 45 cb ff          	movb   $0xff,-0x35(%ebp)
    1b8b:	c7 45 e8 00 00 00 00 	movl   $0x0,-0x18(%ebp)
    1b92:	c7 45 f4 00 00 00 00 	movl   $0x0,-0xc(%ebp)
    1b99:	c7 45 f0 00 00 00 00 	movl   $0x0,-0x10(%ebp)
    1ba0:	c7 45 c0 00 00 00 00 	movl   $0x0,-0x40(%ebp)
    1ba7:	c7 45 c4 00 00 00 00 	movl   $0x0,-0x3c(%ebp)
    1bae:	c6 45 ca f7          	movb   $0xf7,-0x36(%ebp)
    1bb2:	83 ec 0c             	sub    $0xc,%esp
    1bb5:	6a 04                	push   $0x4
    1bb7:	e8 fc ff ff ff       	call   1bb8 <ParseIdivlInstr+0x42>
    1bbc:	83 c4 10             	add    $0x10,%esp
    1bbf:	89 45 e8             	mov    %eax,-0x18(%ebp)
    1bc2:	8b 45 e8             	mov    -0x18(%ebp),%eax
    1bc5:	0f b6 10             	movzbl (%eax),%edx
    1bc8:	83 ca 38             	or     $0x38,%edx
    1bcb:	88 10                	mov    %dl,(%eax)
    1bcd:	e8 fc ff ff ff       	call   1bce <ParseIdivlInstr+0x58>
    1bd2:	89 45 e4             	mov    %eax,-0x1c(%ebp)
    1bd5:	8b 45 e4             	mov    -0x1c(%ebp),%eax
    1bd8:	8b 40 08             	mov    0x8(%eax),%eax
    1bdb:	89 45 e0             	mov    %eax,-0x20(%ebp)
    1bde:	83 7d e0 04          	cmpl   $0x4,-0x20(%ebp)
    1be2:	75 37                	jne    1c1b <ParseIdivlInstr+0xa5>
    1be4:	8b 45 e4             	mov    -0x1c(%ebp),%eax
    1be7:	8b 00                	mov    (%eax),%eax
    1be9:	89 45 dc             	mov    %eax,-0x24(%ebp)
    1bec:	8b 45 dc             	mov    -0x24(%ebp),%eax
    1bef:	0f b6 40 01          	movzbl 0x1(%eax),%eax
    1bf3:	88 45 db             	mov    %al,-0x25(%ebp)
    1bf6:	80 7d db 20          	cmpb   $0x20,-0x25(%ebp)
    1bfa:	75 77                	jne    1c73 <ParseIdivlInstr+0xfd>
    1bfc:	8b 45 dc             	mov    -0x24(%ebp),%eax
    1bff:	0f b6 00             	movzbl (%eax),%eax
    1c02:	83 e0 07             	and    $0x7,%eax
    1c05:	89 c2                	mov    %eax,%edx
    1c07:	8b 45 e8             	mov    -0x18(%ebp),%eax
    1c0a:	89 d1                	mov    %edx,%ecx
    1c0c:	83 e1 07             	and    $0x7,%ecx
    1c0f:	0f b6 10             	movzbl (%eax),%edx
    1c12:	83 e2 f8             	and    $0xfffffff8,%edx
    1c15:	09 ca                	or     %ecx,%edx
    1c17:	88 10                	mov    %dl,(%eax)
    1c19:	eb 58                	jmp    1c73 <ParseIdivlInstr+0xfd>
    1c1b:	83 ec 0c             	sub    $0xc,%esp
    1c1e:	ff 75 e4             	pushl  -0x1c(%ebp)
    1c21:	e8 fc ff ff ff       	call   1c22 <ParseIdivlInstr+0xac>
    1c26:	83 c4 10             	add    $0x10,%esp
    1c29:	89 45 d4             	mov    %eax,-0x2c(%ebp)
    1c2c:	8b 45 d4             	mov    -0x2c(%ebp),%eax
    1c2f:	8b 40 08             	mov    0x8(%eax),%eax
    1c32:	83 e0 03             	and    $0x3,%eax
    1c35:	8b 55 e8             	mov    -0x18(%ebp),%edx
    1c38:	c1 e0 06             	shl    $0x6,%eax
    1c3b:	89 c1                	mov    %eax,%ecx
    1c3d:	0f b6 02             	movzbl (%edx),%eax
    1c40:	83 e0 3f             	and    $0x3f,%eax
    1c43:	09 c8                	or     %ecx,%eax
    1c45:	88 02                	mov    %al,(%edx)
    1c47:	8b 45 d4             	mov    -0x2c(%ebp),%eax
    1c4a:	8b 40 0c             	mov    0xc(%eax),%eax
    1c4d:	83 e0 07             	and    $0x7,%eax
    1c50:	8b 55 e8             	mov    -0x18(%ebp),%edx
    1c53:	83 e0 07             	and    $0x7,%eax
    1c56:	89 c1                	mov    %eax,%ecx
    1c58:	0f b6 02             	movzbl (%edx),%eax
    1c5b:	83 e0 f8             	and    $0xfffffff8,%eax
    1c5e:	09 c8                	or     %ecx,%eax
    1c60:	88 02                	mov    %al,(%edx)
    1c62:	8b 45 d4             	mov    -0x2c(%ebp),%eax
    1c65:	8b 00                	mov    (%eax),%eax
    1c67:	89 45 f0             	mov    %eax,-0x10(%ebp)
    1c6a:	8b 45 d4             	mov    -0x2c(%ebp),%eax
    1c6d:	8b 40 04             	mov    0x4(%eax),%eax
    1c70:	89 45 f4             	mov    %eax,-0xc(%ebp)
    1c73:	83 ec 04             	sub    $0x4,%esp
    1c76:	ff 75 c4             	pushl  -0x3c(%ebp)
    1c79:	ff 75 c0             	pushl  -0x40(%ebp)
    1c7c:	ff 75 f0             	pushl  -0x10(%ebp)
    1c7f:	ff 75 f4             	pushl  -0xc(%ebp)
    1c82:	ff 75 e8             	pushl  -0x18(%ebp)
    1c85:	0f b7 45 ca          	movzwl -0x36(%ebp),%eax
    1c89:	50                   	push   %eax
    1c8a:	ff 75 ec             	pushl  -0x14(%ebp)
    1c8d:	e8 fc ff ff ff       	call   1c8e <ParseIdivlInstr+0x118>
    1c92:	83 c4 20             	add    $0x20,%esp
    1c95:	89 45 d0             	mov    %eax,-0x30(%ebp)
    1c98:	c7 45 cc 00 00 00 00 	movl   $0x0,-0x34(%ebp)
    1c9f:	8b 45 cc             	mov    -0x34(%ebp),%eax
    1ca2:	8d 50 01             	lea    0x1(%eax),%edx
    1ca5:	89 55 cc             	mov    %edx,-0x34(%ebp)
    1ca8:	8b 55 d0             	mov    -0x30(%ebp),%edx
    1cab:	8d 48 08             	lea    0x8(%eax),%ecx
    1cae:	8b 45 e4             	mov    -0x1c(%ebp),%eax
    1cb1:	89 44 8a 04          	mov    %eax,0x4(%edx,%ecx,4)
    1cb5:	8b 45 d0             	mov    -0x30(%ebp),%eax
    1cb8:	c9                   	leave  
    1cb9:	c3                   	ret    

00001cba <ParseDivlInstr>:
    1cba:	55                   	push   %ebp
    1cbb:	89 e5                	mov    %esp,%ebp
    1cbd:	83 ec 48             	sub    $0x48,%esp
    1cc0:	c7 45 ec 00 00 00 00 	movl   $0x0,-0x14(%ebp)
    1cc7:	c6 45 ca ff          	movb   $0xff,-0x36(%ebp)
    1ccb:	c6 45 cb ff          	movb   $0xff,-0x35(%ebp)
    1ccf:	c7 45 e8 00 00 00 00 	movl   $0x0,-0x18(%ebp)
    1cd6:	c7 45 f4 00 00 00 00 	movl   $0x0,-0xc(%ebp)
    1cdd:	c7 45 f0 00 00 00 00 	movl   $0x0,-0x10(%ebp)
    1ce4:	c7 45 c0 00 00 00 00 	movl   $0x0,-0x40(%ebp)
    1ceb:	c7 45 c4 00 00 00 00 	movl   $0x0,-0x3c(%ebp)
    1cf2:	c6 45 ca f7          	movb   $0xf7,-0x36(%ebp)
    1cf6:	83 ec 0c             	sub    $0xc,%esp
    1cf9:	6a 04                	push   $0x4
    1cfb:	e8 fc ff ff ff       	call   1cfc <ParseDivlInstr+0x42>
    1d00:	83 c4 10             	add    $0x10,%esp
    1d03:	89 45 e8             	mov    %eax,-0x18(%ebp)
    1d06:	8b 45 e8             	mov    -0x18(%ebp),%eax
    1d09:	0f b6 10             	movzbl (%eax),%edx
    1d0c:	83 e2 c7             	and    $0xffffffc7,%edx
    1d0f:	83 ca 30             	or     $0x30,%edx
    1d12:	88 10                	mov    %dl,(%eax)
    1d14:	e8 fc ff ff ff       	call   1d15 <ParseDivlInstr+0x5b>
    1d19:	89 45 e4             	mov    %eax,-0x1c(%ebp)
    1d1c:	8b 45 e4             	mov    -0x1c(%ebp),%eax
    1d1f:	8b 40 08             	mov    0x8(%eax),%eax
    1d22:	89 45 e0             	mov    %eax,-0x20(%ebp)
    1d25:	83 7d e0 04          	cmpl   $0x4,-0x20(%ebp)
    1d29:	75 37                	jne    1d62 <ParseDivlInstr+0xa8>
    1d2b:	8b 45 e4             	mov    -0x1c(%ebp),%eax
    1d2e:	8b 00                	mov    (%eax),%eax
    1d30:	89 45 dc             	mov    %eax,-0x24(%ebp)
    1d33:	8b 45 dc             	mov    -0x24(%ebp),%eax
    1d36:	0f b6 40 01          	movzbl 0x1(%eax),%eax
    1d3a:	88 45 db             	mov    %al,-0x25(%ebp)
    1d3d:	80 7d db 20          	cmpb   $0x20,-0x25(%ebp)
    1d41:	75 77                	jne    1dba <ParseDivlInstr+0x100>
    1d43:	8b 45 dc             	mov    -0x24(%ebp),%eax
    1d46:	0f b6 00             	movzbl (%eax),%eax
    1d49:	83 e0 07             	and    $0x7,%eax
    1d4c:	89 c2                	mov    %eax,%edx
    1d4e:	8b 45 e8             	mov    -0x18(%ebp),%eax
    1d51:	89 d1                	mov    %edx,%ecx
    1d53:	83 e1 07             	and    $0x7,%ecx
    1d56:	0f b6 10             	movzbl (%eax),%edx
    1d59:	83 e2 f8             	and    $0xfffffff8,%edx
    1d5c:	09 ca                	or     %ecx,%edx
    1d5e:	88 10                	mov    %dl,(%eax)
    1d60:	eb 58                	jmp    1dba <ParseDivlInstr+0x100>
    1d62:	83 ec 0c             	sub    $0xc,%esp
    1d65:	ff 75 e4             	pushl  -0x1c(%ebp)
    1d68:	e8 fc ff ff ff       	call   1d69 <ParseDivlInstr+0xaf>
    1d6d:	83 c4 10             	add    $0x10,%esp
    1d70:	89 45 d4             	mov    %eax,-0x2c(%ebp)
    1d73:	8b 45 d4             	mov    -0x2c(%ebp),%eax
    1d76:	8b 40 08             	mov    0x8(%eax),%eax
    1d79:	83 e0 03             	and    $0x3,%eax
    1d7c:	8b 55 e8             	mov    -0x18(%ebp),%edx
    1d7f:	c1 e0 06             	shl    $0x6,%eax
    1d82:	89 c1                	mov    %eax,%ecx
    1d84:	0f b6 02             	movzbl (%edx),%eax
    1d87:	83 e0 3f             	and    $0x3f,%eax
    1d8a:	09 c8                	or     %ecx,%eax
    1d8c:	88 02                	mov    %al,(%edx)
    1d8e:	8b 45 d4             	mov    -0x2c(%ebp),%eax
    1d91:	8b 40 0c             	mov    0xc(%eax),%eax
    1d94:	83 e0 07             	and    $0x7,%eax
    1d97:	8b 55 e8             	mov    -0x18(%ebp),%edx
    1d9a:	83 e0 07             	and    $0x7,%eax
    1d9d:	89 c1                	mov    %eax,%ecx
    1d9f:	0f b6 02             	movzbl (%edx),%eax
    1da2:	83 e0 f8             	and    $0xfffffff8,%eax
    1da5:	09 c8                	or     %ecx,%eax
    1da7:	88 02                	mov    %al,(%edx)
    1da9:	8b 45 d4             	mov    -0x2c(%ebp),%eax
    1dac:	8b 00                	mov    (%eax),%eax
    1dae:	89 45 f0             	mov    %eax,-0x10(%ebp)
    1db1:	8b 45 d4             	mov    -0x2c(%ebp),%eax
    1db4:	8b 40 04             	mov    0x4(%eax),%eax
    1db7:	89 45 f4             	mov    %eax,-0xc(%ebp)
    1dba:	83 ec 04             	sub    $0x4,%esp
    1dbd:	ff 75 c4             	pushl  -0x3c(%ebp)
    1dc0:	ff 75 c0             	pushl  -0x40(%ebp)
    1dc3:	ff 75 f0             	pushl  -0x10(%ebp)
    1dc6:	ff 75 f4             	pushl  -0xc(%ebp)
    1dc9:	ff 75 e8             	pushl  -0x18(%ebp)
    1dcc:	0f b7 45 ca          	movzwl -0x36(%ebp),%eax
    1dd0:	50                   	push   %eax
    1dd1:	ff 75 ec             	pushl  -0x14(%ebp)
    1dd4:	e8 fc ff ff ff       	call   1dd5 <ParseDivlInstr+0x11b>
    1dd9:	83 c4 20             	add    $0x20,%esp
    1ddc:	89 45 d0             	mov    %eax,-0x30(%ebp)
    1ddf:	c7 45 cc 00 00 00 00 	movl   $0x0,-0x34(%ebp)
    1de6:	8b 45 cc             	mov    -0x34(%ebp),%eax
    1de9:	8d 50 01             	lea    0x1(%eax),%edx
    1dec:	89 55 cc             	mov    %edx,-0x34(%ebp)
    1def:	8b 55 d0             	mov    -0x30(%ebp),%edx
    1df2:	8d 48 08             	lea    0x8(%eax),%ecx
    1df5:	8b 45 e4             	mov    -0x1c(%ebp),%eax
    1df8:	89 44 8a 04          	mov    %eax,0x4(%edx,%ecx,4)
    1dfc:	8b 45 d0             	mov    -0x30(%ebp),%eax
    1dff:	c9                   	leave  
    1e00:	c3                   	ret    

00001e01 <ParseNeglInstr>:
    1e01:	55                   	push   %ebp
    1e02:	89 e5                	mov    %esp,%ebp
    1e04:	83 ec 48             	sub    $0x48,%esp
    1e07:	c7 45 ec 00 00 00 00 	movl   $0x0,-0x14(%ebp)
    1e0e:	c6 45 ca ff          	movb   $0xff,-0x36(%ebp)
    1e12:	c6 45 cb ff          	movb   $0xff,-0x35(%ebp)
    1e16:	c7 45 e8 00 00 00 00 	movl   $0x0,-0x18(%ebp)
    1e1d:	c7 45 f4 00 00 00 00 	movl   $0x0,-0xc(%ebp)
    1e24:	c7 45 f0 00 00 00 00 	movl   $0x0,-0x10(%ebp)
    1e2b:	c7 45 c0 00 00 00 00 	movl   $0x0,-0x40(%ebp)
    1e32:	c7 45 c4 00 00 00 00 	movl   $0x0,-0x3c(%ebp)
    1e39:	c6 45 ca f7          	movb   $0xf7,-0x36(%ebp)
    1e3d:	83 ec 0c             	sub    $0xc,%esp
    1e40:	6a 04                	push   $0x4
    1e42:	e8 fc ff ff ff       	call   1e43 <ParseNeglInstr+0x42>
    1e47:	83 c4 10             	add    $0x10,%esp
    1e4a:	89 45 e8             	mov    %eax,-0x18(%ebp)
    1e4d:	8b 45 e8             	mov    -0x18(%ebp),%eax
    1e50:	0f b6 10             	movzbl (%eax),%edx
    1e53:	83 e2 c7             	and    $0xffffffc7,%edx
    1e56:	83 ca 18             	or     $0x18,%edx
    1e59:	88 10                	mov    %dl,(%eax)
    1e5b:	e8 fc ff ff ff       	call   1e5c <ParseNeglInstr+0x5b>
    1e60:	89 45 e4             	mov    %eax,-0x1c(%ebp)
    1e63:	8b 45 e4             	mov    -0x1c(%ebp),%eax
    1e66:	8b 40 08             	mov    0x8(%eax),%eax
    1e69:	89 45 e0             	mov    %eax,-0x20(%ebp)
    1e6c:	83 7d e0 04          	cmpl   $0x4,-0x20(%ebp)
    1e70:	75 37                	jne    1ea9 <ParseNeglInstr+0xa8>
    1e72:	8b 45 e4             	mov    -0x1c(%ebp),%eax
    1e75:	8b 00                	mov    (%eax),%eax
    1e77:	89 45 dc             	mov    %eax,-0x24(%ebp)
    1e7a:	8b 45 dc             	mov    -0x24(%ebp),%eax
    1e7d:	0f b6 40 01          	movzbl 0x1(%eax),%eax
    1e81:	88 45 db             	mov    %al,-0x25(%ebp)
    1e84:	80 7d db 20          	cmpb   $0x20,-0x25(%ebp)
    1e88:	75 77                	jne    1f01 <ParseNeglInstr+0x100>
    1e8a:	8b 45 dc             	mov    -0x24(%ebp),%eax
    1e8d:	0f b6 00             	movzbl (%eax),%eax
    1e90:	83 e0 07             	and    $0x7,%eax
    1e93:	89 c2                	mov    %eax,%edx
    1e95:	8b 45 e8             	mov    -0x18(%ebp),%eax
    1e98:	89 d1                	mov    %edx,%ecx
    1e9a:	83 e1 07             	and    $0x7,%ecx
    1e9d:	0f b6 10             	movzbl (%eax),%edx
    1ea0:	83 e2 f8             	and    $0xfffffff8,%edx
    1ea3:	09 ca                	or     %ecx,%edx
    1ea5:	88 10                	mov    %dl,(%eax)
    1ea7:	eb 58                	jmp    1f01 <ParseNeglInstr+0x100>
    1ea9:	83 ec 0c             	sub    $0xc,%esp
    1eac:	ff 75 e4             	pushl  -0x1c(%ebp)
    1eaf:	e8 fc ff ff ff       	call   1eb0 <ParseNeglInstr+0xaf>
    1eb4:	83 c4 10             	add    $0x10,%esp
    1eb7:	89 45 d4             	mov    %eax,-0x2c(%ebp)
    1eba:	8b 45 d4             	mov    -0x2c(%ebp),%eax
    1ebd:	8b 40 08             	mov    0x8(%eax),%eax
    1ec0:	83 e0 03             	and    $0x3,%eax
    1ec3:	8b 55 e8             	mov    -0x18(%ebp),%edx
    1ec6:	c1 e0 06             	shl    $0x6,%eax
    1ec9:	89 c1                	mov    %eax,%ecx
    1ecb:	0f b6 02             	movzbl (%edx),%eax
    1ece:	83 e0 3f             	and    $0x3f,%eax
    1ed1:	09 c8                	or     %ecx,%eax
    1ed3:	88 02                	mov    %al,(%edx)
    1ed5:	8b 45 d4             	mov    -0x2c(%ebp),%eax
    1ed8:	8b 40 0c             	mov    0xc(%eax),%eax
    1edb:	83 e0 07             	and    $0x7,%eax
    1ede:	8b 55 e8             	mov    -0x18(%ebp),%edx
    1ee1:	83 e0 07             	and    $0x7,%eax
    1ee4:	89 c1                	mov    %eax,%ecx
    1ee6:	0f b6 02             	movzbl (%edx),%eax
    1ee9:	83 e0 f8             	and    $0xfffffff8,%eax
    1eec:	09 c8                	or     %ecx,%eax
    1eee:	88 02                	mov    %al,(%edx)
    1ef0:	8b 45 d4             	mov    -0x2c(%ebp),%eax
    1ef3:	8b 00                	mov    (%eax),%eax
    1ef5:	89 45 f0             	mov    %eax,-0x10(%ebp)
    1ef8:	8b 45 d4             	mov    -0x2c(%ebp),%eax
    1efb:	8b 40 04             	mov    0x4(%eax),%eax
    1efe:	89 45 f4             	mov    %eax,-0xc(%ebp)
    1f01:	83 ec 04             	sub    $0x4,%esp
    1f04:	ff 75 c4             	pushl  -0x3c(%ebp)
    1f07:	ff 75 c0             	pushl  -0x40(%ebp)
    1f0a:	ff 75 f0             	pushl  -0x10(%ebp)
    1f0d:	ff 75 f4             	pushl  -0xc(%ebp)
    1f10:	ff 75 e8             	pushl  -0x18(%ebp)
    1f13:	0f b7 45 ca          	movzwl -0x36(%ebp),%eax
    1f17:	50                   	push   %eax
    1f18:	ff 75 ec             	pushl  -0x14(%ebp)
    1f1b:	e8 fc ff ff ff       	call   1f1c <ParseNeglInstr+0x11b>
    1f20:	83 c4 20             	add    $0x20,%esp
    1f23:	89 45 d0             	mov    %eax,-0x30(%ebp)
    1f26:	c7 45 cc 00 00 00 00 	movl   $0x0,-0x34(%ebp)
    1f2d:	8b 45 cc             	mov    -0x34(%ebp),%eax
    1f30:	8d 50 01             	lea    0x1(%eax),%edx
    1f33:	89 55 cc             	mov    %edx,-0x34(%ebp)
    1f36:	8b 55 d0             	mov    -0x30(%ebp),%edx
    1f39:	8d 48 08             	lea    0x8(%eax),%ecx
    1f3c:	8b 45 e4             	mov    -0x1c(%ebp),%eax
    1f3f:	89 44 8a 04          	mov    %eax,0x4(%edx,%ecx,4)
    1f43:	8b 45 d0             	mov    -0x30(%ebp),%eax
    1f46:	c9                   	leave  
    1f47:	c3                   	ret    

00001f48 <ParseNotlInstr>:
    1f48:	55                   	push   %ebp
    1f49:	89 e5                	mov    %esp,%ebp
    1f4b:	83 ec 48             	sub    $0x48,%esp
    1f4e:	c7 45 ec 00 00 00 00 	movl   $0x0,-0x14(%ebp)
    1f55:	c6 45 ca ff          	movb   $0xff,-0x36(%ebp)
    1f59:	c6 45 cb ff          	movb   $0xff,-0x35(%ebp)
    1f5d:	c7 45 e8 00 00 00 00 	movl   $0x0,-0x18(%ebp)
    1f64:	c7 45 f4 00 00 00 00 	movl   $0x0,-0xc(%ebp)
    1f6b:	c7 45 f0 00 00 00 00 	movl   $0x0,-0x10(%ebp)
    1f72:	c7 45 c0 00 00 00 00 	movl   $0x0,-0x40(%ebp)
    1f79:	c7 45 c4 00 00 00 00 	movl   $0x0,-0x3c(%ebp)
    1f80:	c6 45 ca f7          	movb   $0xf7,-0x36(%ebp)
    1f84:	83 ec 0c             	sub    $0xc,%esp
    1f87:	6a 04                	push   $0x4
    1f89:	e8 fc ff ff ff       	call   1f8a <ParseNotlInstr+0x42>
    1f8e:	83 c4 10             	add    $0x10,%esp
    1f91:	89 45 e8             	mov    %eax,-0x18(%ebp)
    1f94:	8b 45 e8             	mov    -0x18(%ebp),%eax
    1f97:	0f b6 10             	movzbl (%eax),%edx
    1f9a:	83 e2 c7             	and    $0xffffffc7,%edx
    1f9d:	83 ca 10             	or     $0x10,%edx
    1fa0:	88 10                	mov    %dl,(%eax)
    1fa2:	e8 fc ff ff ff       	call   1fa3 <ParseNotlInstr+0x5b>
    1fa7:	89 45 e4             	mov    %eax,-0x1c(%ebp)
    1faa:	8b 45 e4             	mov    -0x1c(%ebp),%eax
    1fad:	8b 40 08             	mov    0x8(%eax),%eax
    1fb0:	89 45 e0             	mov    %eax,-0x20(%ebp)
    1fb3:	83 7d e0 04          	cmpl   $0x4,-0x20(%ebp)
    1fb7:	75 37                	jne    1ff0 <ParseNotlInstr+0xa8>
    1fb9:	8b 45 e4             	mov    -0x1c(%ebp),%eax
    1fbc:	8b 00                	mov    (%eax),%eax
    1fbe:	89 45 dc             	mov    %eax,-0x24(%ebp)
    1fc1:	8b 45 dc             	mov    -0x24(%ebp),%eax
    1fc4:	0f b6 40 01          	movzbl 0x1(%eax),%eax
    1fc8:	88 45 db             	mov    %al,-0x25(%ebp)
    1fcb:	80 7d db 20          	cmpb   $0x20,-0x25(%ebp)
    1fcf:	75 77                	jne    2048 <ParseNotlInstr+0x100>
    1fd1:	8b 45 dc             	mov    -0x24(%ebp),%eax
    1fd4:	0f b6 00             	movzbl (%eax),%eax
    1fd7:	83 e0 07             	and    $0x7,%eax
    1fda:	89 c2                	mov    %eax,%edx
    1fdc:	8b 45 e8             	mov    -0x18(%ebp),%eax
    1fdf:	89 d1                	mov    %edx,%ecx
    1fe1:	83 e1 07             	and    $0x7,%ecx
    1fe4:	0f b6 10             	movzbl (%eax),%edx
    1fe7:	83 e2 f8             	and    $0xfffffff8,%edx
    1fea:	09 ca                	or     %ecx,%edx
    1fec:	88 10                	mov    %dl,(%eax)
    1fee:	eb 58                	jmp    2048 <ParseNotlInstr+0x100>
    1ff0:	83 ec 0c             	sub    $0xc,%esp
    1ff3:	ff 75 e4             	pushl  -0x1c(%ebp)
    1ff6:	e8 fc ff ff ff       	call   1ff7 <ParseNotlInstr+0xaf>
    1ffb:	83 c4 10             	add    $0x10,%esp
    1ffe:	89 45 d4             	mov    %eax,-0x2c(%ebp)
    2001:	8b 45 d4             	mov    -0x2c(%ebp),%eax
    2004:	8b 40 08             	mov    0x8(%eax),%eax
    2007:	83 e0 03             	and    $0x3,%eax
    200a:	8b 55 e8             	mov    -0x18(%ebp),%edx
    200d:	c1 e0 06             	shl    $0x6,%eax
    2010:	89 c1                	mov    %eax,%ecx
    2012:	0f b6 02             	movzbl (%edx),%eax
    2015:	83 e0 3f             	and    $0x3f,%eax
    2018:	09 c8                	or     %ecx,%eax
    201a:	88 02                	mov    %al,(%edx)
    201c:	8b 45 d4             	mov    -0x2c(%ebp),%eax
    201f:	8b 40 0c             	mov    0xc(%eax),%eax
    2022:	83 e0 07             	and    $0x7,%eax
    2025:	8b 55 e8             	mov    -0x18(%ebp),%edx
    2028:	83 e0 07             	and    $0x7,%eax
    202b:	89 c1                	mov    %eax,%ecx
    202d:	0f b6 02             	movzbl (%edx),%eax
    2030:	83 e0 f8             	and    $0xfffffff8,%eax
    2033:	09 c8                	or     %ecx,%eax
    2035:	88 02                	mov    %al,(%edx)
    2037:	8b 45 d4             	mov    -0x2c(%ebp),%eax
    203a:	8b 00                	mov    (%eax),%eax
    203c:	89 45 f0             	mov    %eax,-0x10(%ebp)
    203f:	8b 45 d4             	mov    -0x2c(%ebp),%eax
    2042:	8b 40 04             	mov    0x4(%eax),%eax
    2045:	89 45 f4             	mov    %eax,-0xc(%ebp)
    2048:	83 ec 04             	sub    $0x4,%esp
    204b:	ff 75 c4             	pushl  -0x3c(%ebp)
    204e:	ff 75 c0             	pushl  -0x40(%ebp)
    2051:	ff 75 f0             	pushl  -0x10(%ebp)
    2054:	ff 75 f4             	pushl  -0xc(%ebp)
    2057:	ff 75 e8             	pushl  -0x18(%ebp)
    205a:	0f b7 45 ca          	movzwl -0x36(%ebp),%eax
    205e:	50                   	push   %eax
    205f:	ff 75 ec             	pushl  -0x14(%ebp)
    2062:	e8 fc ff ff ff       	call   2063 <ParseNotlInstr+0x11b>
    2067:	83 c4 20             	add    $0x20,%esp
    206a:	89 45 d0             	mov    %eax,-0x30(%ebp)
    206d:	c7 45 cc 00 00 00 00 	movl   $0x0,-0x34(%ebp)
    2074:	8b 45 cc             	mov    -0x34(%ebp),%eax
    2077:	8d 50 01             	lea    0x1(%eax),%edx
    207a:	89 55 cc             	mov    %edx,-0x34(%ebp)
    207d:	8b 55 d0             	mov    -0x30(%ebp),%edx
    2080:	8d 48 08             	lea    0x8(%eax),%ecx
    2083:	8b 45 e4             	mov    -0x1c(%ebp),%eax
    2086:	89 44 8a 04          	mov    %eax,0x4(%edx,%ecx,4)
    208a:	8b 45 d0             	mov    -0x30(%ebp),%eax
    208d:	c9                   	leave  
    208e:	c3                   	ret    

0000208f <ParseJeInstr>:
    208f:	55                   	push   %ebp
    2090:	89 e5                	mov    %esp,%ebp
    2092:	83 ec 38             	sub    $0x38,%esp
    2095:	c7 45 f4 0f 00 00 00 	movl   $0xf,-0xc(%ebp)
    209c:	c6 45 de ff          	movb   $0xff,-0x22(%ebp)
    20a0:	c6 45 df ff          	movb   $0xff,-0x21(%ebp)
    20a4:	c7 45 f0 00 00 00 00 	movl   $0x0,-0x10(%ebp)
    20ab:	c7 45 ec 00 00 00 00 	movl   $0x0,-0x14(%ebp)
    20b2:	c7 45 e8 00 00 00 00 	movl   $0x0,-0x18(%ebp)
    20b9:	c7 45 d4 00 00 00 00 	movl   $0x0,-0x2c(%ebp)
    20c0:	c7 45 d8 00 00 00 00 	movl   $0x0,-0x28(%ebp)
    20c7:	c6 45 de 84          	movb   $0x84,-0x22(%ebp)
    20cb:	83 ec 0c             	sub    $0xc,%esp
    20ce:	6a 0c                	push   $0xc
    20d0:	e8 fc ff ff ff       	call   20d1 <ParseJeInstr+0x42>
    20d5:	83 c4 10             	add    $0x10,%esp
    20d8:	89 45 e8             	mov    %eax,-0x18(%ebp)
    20db:	8b 45 e8             	mov    -0x18(%ebp),%eax
    20de:	c7 00 fc ff ff ff    	movl   $0xfffffffc,(%eax)
    20e4:	83 ec 04             	sub    $0x4,%esp
    20e7:	ff 75 d8             	pushl  -0x28(%ebp)
    20ea:	ff 75 d4             	pushl  -0x2c(%ebp)
    20ed:	ff 75 e8             	pushl  -0x18(%ebp)
    20f0:	ff 75 ec             	pushl  -0x14(%ebp)
    20f3:	ff 75 f0             	pushl  -0x10(%ebp)
    20f6:	0f b7 45 de          	movzwl -0x22(%ebp),%eax
    20fa:	50                   	push   %eax
    20fb:	ff 75 f4             	pushl  -0xc(%ebp)
    20fe:	e8 fc ff ff ff       	call   20ff <ParseJeInstr+0x70>
    2103:	83 c4 20             	add    $0x20,%esp
    2106:	89 45 e4             	mov    %eax,-0x1c(%ebp)
    2109:	c7 45 e0 00 00 00 00 	movl   $0x0,-0x20(%ebp)
    2110:	8b 45 e4             	mov    -0x1c(%ebp),%eax
    2113:	c9                   	leave  
    2114:	c3                   	ret    

00002115 <ParseJnpInstr>:
    2115:	55                   	push   %ebp
    2116:	89 e5                	mov    %esp,%ebp
    2118:	83 ec 38             	sub    $0x38,%esp
    211b:	c7 45 f4 0f 00 00 00 	movl   $0xf,-0xc(%ebp)
    2122:	c6 45 de ff          	movb   $0xff,-0x22(%ebp)
    2126:	c6 45 df ff          	movb   $0xff,-0x21(%ebp)
    212a:	c7 45 f0 00 00 00 00 	movl   $0x0,-0x10(%ebp)
    2131:	c7 45 ec 00 00 00 00 	movl   $0x0,-0x14(%ebp)
    2138:	c7 45 e8 00 00 00 00 	movl   $0x0,-0x18(%ebp)
    213f:	c7 45 d4 00 00 00 00 	movl   $0x0,-0x2c(%ebp)
    2146:	c7 45 d8 00 00 00 00 	movl   $0x0,-0x28(%ebp)
    214d:	c6 45 de 8b          	movb   $0x8b,-0x22(%ebp)
    2151:	83 ec 0c             	sub    $0xc,%esp
    2154:	6a 0c                	push   $0xc
    2156:	e8 fc ff ff ff       	call   2157 <ParseJnpInstr+0x42>
    215b:	83 c4 10             	add    $0x10,%esp
    215e:	89 45 e8             	mov    %eax,-0x18(%ebp)
    2161:	8b 45 e8             	mov    -0x18(%ebp),%eax
    2164:	c7 00 fc ff ff ff    	movl   $0xfffffffc,(%eax)
    216a:	83 ec 04             	sub    $0x4,%esp
    216d:	ff 75 d8             	pushl  -0x28(%ebp)
    2170:	ff 75 d4             	pushl  -0x2c(%ebp)
    2173:	ff 75 e8             	pushl  -0x18(%ebp)
    2176:	ff 75 ec             	pushl  -0x14(%ebp)
    2179:	ff 75 f0             	pushl  -0x10(%ebp)
    217c:	0f b7 45 de          	movzwl -0x22(%ebp),%eax
    2180:	50                   	push   %eax
    2181:	ff 75 f4             	pushl  -0xc(%ebp)
    2184:	e8 fc ff ff ff       	call   2185 <ParseJnpInstr+0x70>
    2189:	83 c4 20             	add    $0x20,%esp
    218c:	89 45 e4             	mov    %eax,-0x1c(%ebp)
    218f:	c7 45 e0 00 00 00 00 	movl   $0x0,-0x20(%ebp)
    2196:	8b 45 e4             	mov    -0x1c(%ebp),%eax
    2199:	c9                   	leave  
    219a:	c3                   	ret    

0000219b <ParseJneInstr>:
    219b:	55                   	push   %ebp
    219c:	89 e5                	mov    %esp,%ebp
    219e:	83 ec 38             	sub    $0x38,%esp
    21a1:	c7 45 f4 0f 00 00 00 	movl   $0xf,-0xc(%ebp)
    21a8:	c6 45 de ff          	movb   $0xff,-0x22(%ebp)
    21ac:	c6 45 df ff          	movb   $0xff,-0x21(%ebp)
    21b0:	c7 45 f0 00 00 00 00 	movl   $0x0,-0x10(%ebp)
    21b7:	c7 45 ec 00 00 00 00 	movl   $0x0,-0x14(%ebp)
    21be:	c7 45 e8 00 00 00 00 	movl   $0x0,-0x18(%ebp)
    21c5:	c7 45 d4 00 00 00 00 	movl   $0x0,-0x2c(%ebp)
    21cc:	c7 45 d8 00 00 00 00 	movl   $0x0,-0x28(%ebp)
    21d3:	c6 45 de 85          	movb   $0x85,-0x22(%ebp)
    21d7:	83 ec 0c             	sub    $0xc,%esp
    21da:	6a 0c                	push   $0xc
    21dc:	e8 fc ff ff ff       	call   21dd <ParseJneInstr+0x42>
    21e1:	83 c4 10             	add    $0x10,%esp
    21e4:	89 45 e8             	mov    %eax,-0x18(%ebp)
    21e7:	8b 45 e8             	mov    -0x18(%ebp),%eax
    21ea:	c7 00 fc ff ff ff    	movl   $0xfffffffc,(%eax)
    21f0:	83 ec 04             	sub    $0x4,%esp
    21f3:	ff 75 d8             	pushl  -0x28(%ebp)
    21f6:	ff 75 d4             	pushl  -0x2c(%ebp)
    21f9:	ff 75 e8             	pushl  -0x18(%ebp)
    21fc:	ff 75 ec             	pushl  -0x14(%ebp)
    21ff:	ff 75 f0             	pushl  -0x10(%ebp)
    2202:	0f b7 45 de          	movzwl -0x22(%ebp),%eax
    2206:	50                   	push   %eax
    2207:	ff 75 f4             	pushl  -0xc(%ebp)
    220a:	e8 fc ff ff ff       	call   220b <ParseJneInstr+0x70>
    220f:	83 c4 20             	add    $0x20,%esp
    2212:	89 45 e4             	mov    %eax,-0x1c(%ebp)
    2215:	c7 45 e0 00 00 00 00 	movl   $0x0,-0x20(%ebp)
    221c:	8b 45 e4             	mov    -0x1c(%ebp),%eax
    221f:	c9                   	leave  
    2220:	c3                   	ret    

00002221 <ParseJpInstr>:
    2221:	55                   	push   %ebp
    2222:	89 e5                	mov    %esp,%ebp
    2224:	83 ec 38             	sub    $0x38,%esp
    2227:	c7 45 f4 0f 00 00 00 	movl   $0xf,-0xc(%ebp)
    222e:	c6 45 de ff          	movb   $0xff,-0x22(%ebp)
    2232:	c6 45 df ff          	movb   $0xff,-0x21(%ebp)
    2236:	c7 45 f0 00 00 00 00 	movl   $0x0,-0x10(%ebp)
    223d:	c7 45 ec 00 00 00 00 	movl   $0x0,-0x14(%ebp)
    2244:	c7 45 e8 00 00 00 00 	movl   $0x0,-0x18(%ebp)
    224b:	c7 45 d4 00 00 00 00 	movl   $0x0,-0x2c(%ebp)
    2252:	c7 45 d8 00 00 00 00 	movl   $0x0,-0x28(%ebp)
    2259:	c6 45 de 8a          	movb   $0x8a,-0x22(%ebp)
    225d:	83 ec 0c             	sub    $0xc,%esp
    2260:	6a 0c                	push   $0xc
    2262:	e8 fc ff ff ff       	call   2263 <ParseJpInstr+0x42>
    2267:	83 c4 10             	add    $0x10,%esp
    226a:	89 45 e8             	mov    %eax,-0x18(%ebp)
    226d:	8b 45 e8             	mov    -0x18(%ebp),%eax
    2270:	c7 00 fc ff ff ff    	movl   $0xfffffffc,(%eax)
    2276:	83 ec 04             	sub    $0x4,%esp
    2279:	ff 75 d8             	pushl  -0x28(%ebp)
    227c:	ff 75 d4             	pushl  -0x2c(%ebp)
    227f:	ff 75 e8             	pushl  -0x18(%ebp)
    2282:	ff 75 ec             	pushl  -0x14(%ebp)
    2285:	ff 75 f0             	pushl  -0x10(%ebp)
    2288:	0f b7 45 de          	movzwl -0x22(%ebp),%eax
    228c:	50                   	push   %eax
    228d:	ff 75 f4             	pushl  -0xc(%ebp)
    2290:	e8 fc ff ff ff       	call   2291 <ParseJpInstr+0x70>
    2295:	83 c4 20             	add    $0x20,%esp
    2298:	89 45 e4             	mov    %eax,-0x1c(%ebp)
    229b:	c7 45 e0 00 00 00 00 	movl   $0x0,-0x20(%ebp)
    22a2:	8b 45 e4             	mov    -0x1c(%ebp),%eax
    22a5:	c9                   	leave  
    22a6:	c3                   	ret    

000022a7 <ParseJgInstr>:
    22a7:	55                   	push   %ebp
    22a8:	89 e5                	mov    %esp,%ebp
    22aa:	83 ec 38             	sub    $0x38,%esp
    22ad:	c7 45 f4 00 00 00 00 	movl   $0x0,-0xc(%ebp)
    22b4:	c6 45 de ff          	movb   $0xff,-0x22(%ebp)
    22b8:	c6 45 df ff          	movb   $0xff,-0x21(%ebp)
    22bc:	c7 45 f0 00 00 00 00 	movl   $0x0,-0x10(%ebp)
    22c3:	c7 45 ec 00 00 00 00 	movl   $0x0,-0x14(%ebp)
    22ca:	c7 45 e8 00 00 00 00 	movl   $0x0,-0x18(%ebp)
    22d1:	c7 45 d4 00 00 00 00 	movl   $0x0,-0x2c(%ebp)
    22d8:	c7 45 d8 00 00 00 00 	movl   $0x0,-0x28(%ebp)
    22df:	c6 45 de 7f          	movb   $0x7f,-0x22(%ebp)
    22e3:	83 ec 0c             	sub    $0xc,%esp
    22e6:	6a 0c                	push   $0xc
    22e8:	e8 fc ff ff ff       	call   22e9 <ParseJgInstr+0x42>
    22ed:	83 c4 10             	add    $0x10,%esp
    22f0:	89 45 e8             	mov    %eax,-0x18(%ebp)
    22f3:	8b 45 e8             	mov    -0x18(%ebp),%eax
    22f6:	c7 00 fc ff ff ff    	movl   $0xfffffffc,(%eax)
    22fc:	83 ec 04             	sub    $0x4,%esp
    22ff:	ff 75 d8             	pushl  -0x28(%ebp)
    2302:	ff 75 d4             	pushl  -0x2c(%ebp)
    2305:	ff 75 e8             	pushl  -0x18(%ebp)
    2308:	ff 75 ec             	pushl  -0x14(%ebp)
    230b:	ff 75 f0             	pushl  -0x10(%ebp)
    230e:	0f b7 45 de          	movzwl -0x22(%ebp),%eax
    2312:	50                   	push   %eax
    2313:	ff 75 f4             	pushl  -0xc(%ebp)
    2316:	e8 fc ff ff ff       	call   2317 <ParseJgInstr+0x70>
    231b:	83 c4 20             	add    $0x20,%esp
    231e:	89 45 e4             	mov    %eax,-0x1c(%ebp)
    2321:	c7 45 e0 00 00 00 00 	movl   $0x0,-0x20(%ebp)
    2328:	8b 45 e4             	mov    -0x1c(%ebp),%eax
    232b:	c9                   	leave  
    232c:	c3                   	ret    

0000232d <ParseJaInstr>:
    232d:	55                   	push   %ebp
    232e:	89 e5                	mov    %esp,%ebp
    2330:	83 ec 38             	sub    $0x38,%esp
    2333:	c7 45 f4 00 00 00 00 	movl   $0x0,-0xc(%ebp)
    233a:	c6 45 de ff          	movb   $0xff,-0x22(%ebp)
    233e:	c6 45 df ff          	movb   $0xff,-0x21(%ebp)
    2342:	c7 45 f0 00 00 00 00 	movl   $0x0,-0x10(%ebp)
    2349:	c7 45 ec 00 00 00 00 	movl   $0x0,-0x14(%ebp)
    2350:	c7 45 e8 00 00 00 00 	movl   $0x0,-0x18(%ebp)
    2357:	c7 45 d4 00 00 00 00 	movl   $0x0,-0x2c(%ebp)
    235e:	c7 45 d8 00 00 00 00 	movl   $0x0,-0x28(%ebp)
    2365:	c6 45 de 77          	movb   $0x77,-0x22(%ebp)
    2369:	83 ec 0c             	sub    $0xc,%esp
    236c:	6a 0c                	push   $0xc
    236e:	e8 fc ff ff ff       	call   236f <ParseJaInstr+0x42>
    2373:	83 c4 10             	add    $0x10,%esp
    2376:	89 45 e8             	mov    %eax,-0x18(%ebp)
    2379:	8b 45 e8             	mov    -0x18(%ebp),%eax
    237c:	c7 00 fc ff ff ff    	movl   $0xfffffffc,(%eax)
    2382:	83 ec 04             	sub    $0x4,%esp
    2385:	ff 75 d8             	pushl  -0x28(%ebp)
    2388:	ff 75 d4             	pushl  -0x2c(%ebp)
    238b:	ff 75 e8             	pushl  -0x18(%ebp)
    238e:	ff 75 ec             	pushl  -0x14(%ebp)
    2391:	ff 75 f0             	pushl  -0x10(%ebp)
    2394:	0f b7 45 de          	movzwl -0x22(%ebp),%eax
    2398:	50                   	push   %eax
    2399:	ff 75 f4             	pushl  -0xc(%ebp)
    239c:	e8 fc ff ff ff       	call   239d <ParseJaInstr+0x70>
    23a1:	83 c4 20             	add    $0x20,%esp
    23a4:	89 45 e4             	mov    %eax,-0x1c(%ebp)
    23a7:	c7 45 e0 00 00 00 00 	movl   $0x0,-0x20(%ebp)
    23ae:	8b 45 e4             	mov    -0x1c(%ebp),%eax
    23b1:	c9                   	leave  
    23b2:	c3                   	ret    

000023b3 <ParseJlInstr>:
    23b3:	55                   	push   %ebp
    23b4:	89 e5                	mov    %esp,%ebp
    23b6:	83 ec 38             	sub    $0x38,%esp
    23b9:	c7 45 f4 00 00 00 00 	movl   $0x0,-0xc(%ebp)
    23c0:	c6 45 de ff          	movb   $0xff,-0x22(%ebp)
    23c4:	c6 45 df ff          	movb   $0xff,-0x21(%ebp)
    23c8:	c7 45 f0 00 00 00 00 	movl   $0x0,-0x10(%ebp)
    23cf:	c7 45 ec 00 00 00 00 	movl   $0x0,-0x14(%ebp)
    23d6:	c7 45 e8 00 00 00 00 	movl   $0x0,-0x18(%ebp)
    23dd:	c7 45 d4 00 00 00 00 	movl   $0x0,-0x2c(%ebp)
    23e4:	c7 45 d8 00 00 00 00 	movl   $0x0,-0x28(%ebp)
    23eb:	c6 45 de 7c          	movb   $0x7c,-0x22(%ebp)
    23ef:	83 ec 0c             	sub    $0xc,%esp
    23f2:	6a 0c                	push   $0xc
    23f4:	e8 fc ff ff ff       	call   23f5 <ParseJlInstr+0x42>
    23f9:	83 c4 10             	add    $0x10,%esp
    23fc:	89 45 e8             	mov    %eax,-0x18(%ebp)
    23ff:	8b 45 e8             	mov    -0x18(%ebp),%eax
    2402:	c7 00 fc ff ff ff    	movl   $0xfffffffc,(%eax)
    2408:	83 ec 04             	sub    $0x4,%esp
    240b:	ff 75 d8             	pushl  -0x28(%ebp)
    240e:	ff 75 d4             	pushl  -0x2c(%ebp)
    2411:	ff 75 e8             	pushl  -0x18(%ebp)
    2414:	ff 75 ec             	pushl  -0x14(%ebp)
    2417:	ff 75 f0             	pushl  -0x10(%ebp)
    241a:	0f b7 45 de          	movzwl -0x22(%ebp),%eax
    241e:	50                   	push   %eax
    241f:	ff 75 f4             	pushl  -0xc(%ebp)
    2422:	e8 fc ff ff ff       	call   2423 <ParseJlInstr+0x70>
    2427:	83 c4 20             	add    $0x20,%esp
    242a:	89 45 e4             	mov    %eax,-0x1c(%ebp)
    242d:	c7 45 e0 00 00 00 00 	movl   $0x0,-0x20(%ebp)
    2434:	8b 45 e4             	mov    -0x1c(%ebp),%eax
    2437:	c9                   	leave  
    2438:	c3                   	ret    

00002439 <ParseJbInstr>:
    2439:	55                   	push   %ebp
    243a:	89 e5                	mov    %esp,%ebp
    243c:	83 ec 38             	sub    $0x38,%esp
    243f:	c7 45 f4 00 00 00 00 	movl   $0x0,-0xc(%ebp)
    2446:	c6 45 de ff          	movb   $0xff,-0x22(%ebp)
    244a:	c6 45 df ff          	movb   $0xff,-0x21(%ebp)
    244e:	c7 45 f0 00 00 00 00 	movl   $0x0,-0x10(%ebp)
    2455:	c7 45 ec 00 00 00 00 	movl   $0x0,-0x14(%ebp)
    245c:	c7 45 e8 00 00 00 00 	movl   $0x0,-0x18(%ebp)
    2463:	c7 45 d4 00 00 00 00 	movl   $0x0,-0x2c(%ebp)
    246a:	c7 45 d8 00 00 00 00 	movl   $0x0,-0x28(%ebp)
    2471:	c6 45 de 72          	movb   $0x72,-0x22(%ebp)
    2475:	83 ec 0c             	sub    $0xc,%esp
    2478:	6a 0c                	push   $0xc
    247a:	e8 fc ff ff ff       	call   247b <ParseJbInstr+0x42>
    247f:	83 c4 10             	add    $0x10,%esp
    2482:	89 45 e8             	mov    %eax,-0x18(%ebp)
    2485:	8b 45 e8             	mov    -0x18(%ebp),%eax
    2488:	c7 00 fc ff ff ff    	movl   $0xfffffffc,(%eax)
    248e:	83 ec 04             	sub    $0x4,%esp
    2491:	ff 75 d8             	pushl  -0x28(%ebp)
    2494:	ff 75 d4             	pushl  -0x2c(%ebp)
    2497:	ff 75 e8             	pushl  -0x18(%ebp)
    249a:	ff 75 ec             	pushl  -0x14(%ebp)
    249d:	ff 75 f0             	pushl  -0x10(%ebp)
    24a0:	0f b7 45 de          	movzwl -0x22(%ebp),%eax
    24a4:	50                   	push   %eax
    24a5:	ff 75 f4             	pushl  -0xc(%ebp)
    24a8:	e8 fc ff ff ff       	call   24a9 <ParseJbInstr+0x70>
    24ad:	83 c4 20             	add    $0x20,%esp
    24b0:	89 45 e4             	mov    %eax,-0x1c(%ebp)
    24b3:	c7 45 e0 00 00 00 00 	movl   $0x0,-0x20(%ebp)
    24ba:	8b 45 e4             	mov    -0x1c(%ebp),%eax
    24bd:	c9                   	leave  
    24be:	c3                   	ret    

000024bf <ParseJgeInstr>:
    24bf:	55                   	push   %ebp
    24c0:	89 e5                	mov    %esp,%ebp
    24c2:	83 ec 38             	sub    $0x38,%esp
    24c5:	c7 45 f4 0f 00 00 00 	movl   $0xf,-0xc(%ebp)
    24cc:	c6 45 de ff          	movb   $0xff,-0x22(%ebp)
    24d0:	c6 45 df ff          	movb   $0xff,-0x21(%ebp)
    24d4:	c7 45 f0 00 00 00 00 	movl   $0x0,-0x10(%ebp)
    24db:	c7 45 ec 00 00 00 00 	movl   $0x0,-0x14(%ebp)
    24e2:	c7 45 e8 00 00 00 00 	movl   $0x0,-0x18(%ebp)
    24e9:	c7 45 d4 00 00 00 00 	movl   $0x0,-0x2c(%ebp)
    24f0:	c7 45 d8 00 00 00 00 	movl   $0x0,-0x28(%ebp)
    24f7:	c6 45 de 8d          	movb   $0x8d,-0x22(%ebp)
    24fb:	83 ec 0c             	sub    $0xc,%esp
    24fe:	6a 0c                	push   $0xc
    2500:	e8 fc ff ff ff       	call   2501 <ParseJgeInstr+0x42>
    2505:	83 c4 10             	add    $0x10,%esp
    2508:	89 45 e8             	mov    %eax,-0x18(%ebp)
    250b:	8b 45 e8             	mov    -0x18(%ebp),%eax
    250e:	c7 00 fc ff ff ff    	movl   $0xfffffffc,(%eax)
    2514:	83 ec 04             	sub    $0x4,%esp
    2517:	ff 75 d8             	pushl  -0x28(%ebp)
    251a:	ff 75 d4             	pushl  -0x2c(%ebp)
    251d:	ff 75 e8             	pushl  -0x18(%ebp)
    2520:	ff 75 ec             	pushl  -0x14(%ebp)
    2523:	ff 75 f0             	pushl  -0x10(%ebp)
    2526:	0f b7 45 de          	movzwl -0x22(%ebp),%eax
    252a:	50                   	push   %eax
    252b:	ff 75 f4             	pushl  -0xc(%ebp)
    252e:	e8 fc ff ff ff       	call   252f <ParseJgeInstr+0x70>
    2533:	83 c4 20             	add    $0x20,%esp
    2536:	89 45 e4             	mov    %eax,-0x1c(%ebp)
    2539:	c7 45 e0 00 00 00 00 	movl   $0x0,-0x20(%ebp)
    2540:	8b 45 e4             	mov    -0x1c(%ebp),%eax
    2543:	c9                   	leave  
    2544:	c3                   	ret    

00002545 <ParseJaeInstr>:
    2545:	55                   	push   %ebp
    2546:	89 e5                	mov    %esp,%ebp
    2548:	83 ec 38             	sub    $0x38,%esp
    254b:	c7 45 f4 0f 00 00 00 	movl   $0xf,-0xc(%ebp)
    2552:	c6 45 de ff          	movb   $0xff,-0x22(%ebp)
    2556:	c6 45 df ff          	movb   $0xff,-0x21(%ebp)
    255a:	c7 45 f0 00 00 00 00 	movl   $0x0,-0x10(%ebp)
    2561:	c7 45 ec 00 00 00 00 	movl   $0x0,-0x14(%ebp)
    2568:	c7 45 e8 00 00 00 00 	movl   $0x0,-0x18(%ebp)
    256f:	c7 45 d4 00 00 00 00 	movl   $0x0,-0x2c(%ebp)
    2576:	c7 45 d8 00 00 00 00 	movl   $0x0,-0x28(%ebp)
    257d:	c6 45 de 83          	movb   $0x83,-0x22(%ebp)
    2581:	83 ec 0c             	sub    $0xc,%esp
    2584:	6a 0c                	push   $0xc
    2586:	e8 fc ff ff ff       	call   2587 <ParseJaeInstr+0x42>
    258b:	83 c4 10             	add    $0x10,%esp
    258e:	89 45 e8             	mov    %eax,-0x18(%ebp)
    2591:	8b 45 e8             	mov    -0x18(%ebp),%eax
    2594:	c7 00 fc ff ff ff    	movl   $0xfffffffc,(%eax)
    259a:	83 ec 04             	sub    $0x4,%esp
    259d:	ff 75 d8             	pushl  -0x28(%ebp)
    25a0:	ff 75 d4             	pushl  -0x2c(%ebp)
    25a3:	ff 75 e8             	pushl  -0x18(%ebp)
    25a6:	ff 75 ec             	pushl  -0x14(%ebp)
    25a9:	ff 75 f0             	pushl  -0x10(%ebp)
    25ac:	0f b7 45 de          	movzwl -0x22(%ebp),%eax
    25b0:	50                   	push   %eax
    25b1:	ff 75 f4             	pushl  -0xc(%ebp)
    25b4:	e8 fc ff ff ff       	call   25b5 <ParseJaeInstr+0x70>
    25b9:	83 c4 20             	add    $0x20,%esp
    25bc:	89 45 e4             	mov    %eax,-0x1c(%ebp)
    25bf:	c7 45 e0 00 00 00 00 	movl   $0x0,-0x20(%ebp)
    25c6:	8b 45 e4             	mov    -0x1c(%ebp),%eax
    25c9:	c9                   	leave  
    25ca:	c3                   	ret    

000025cb <ParseJleInstr>:
    25cb:	55                   	push   %ebp
    25cc:	89 e5                	mov    %esp,%ebp
    25ce:	83 ec 38             	sub    $0x38,%esp
    25d1:	c7 45 f4 0f 00 00 00 	movl   $0xf,-0xc(%ebp)
    25d8:	c6 45 de ff          	movb   $0xff,-0x22(%ebp)
    25dc:	c6 45 df ff          	movb   $0xff,-0x21(%ebp)
    25e0:	c7 45 f0 00 00 00 00 	movl   $0x0,-0x10(%ebp)
    25e7:	c7 45 ec 00 00 00 00 	movl   $0x0,-0x14(%ebp)
    25ee:	c7 45 e8 00 00 00 00 	movl   $0x0,-0x18(%ebp)
    25f5:	c7 45 d4 00 00 00 00 	movl   $0x0,-0x2c(%ebp)
    25fc:	c7 45 d8 00 00 00 00 	movl   $0x0,-0x28(%ebp)
    2603:	c6 45 de 8e          	movb   $0x8e,-0x22(%ebp)
    2607:	83 ec 0c             	sub    $0xc,%esp
    260a:	6a 0c                	push   $0xc
    260c:	e8 fc ff ff ff       	call   260d <ParseJleInstr+0x42>
    2611:	83 c4 10             	add    $0x10,%esp
    2614:	89 45 e8             	mov    %eax,-0x18(%ebp)
    2617:	8b 45 e8             	mov    -0x18(%ebp),%eax
    261a:	c7 00 fc ff ff ff    	movl   $0xfffffffc,(%eax)
    2620:	83 ec 04             	sub    $0x4,%esp
    2623:	ff 75 d8             	pushl  -0x28(%ebp)
    2626:	ff 75 d4             	pushl  -0x2c(%ebp)
    2629:	ff 75 e8             	pushl  -0x18(%ebp)
    262c:	ff 75 ec             	pushl  -0x14(%ebp)
    262f:	ff 75 f0             	pushl  -0x10(%ebp)
    2632:	0f b7 45 de          	movzwl -0x22(%ebp),%eax
    2636:	50                   	push   %eax
    2637:	ff 75 f4             	pushl  -0xc(%ebp)
    263a:	e8 fc ff ff ff       	call   263b <ParseJleInstr+0x70>
    263f:	83 c4 20             	add    $0x20,%esp
    2642:	89 45 e4             	mov    %eax,-0x1c(%ebp)
    2645:	c7 45 e0 00 00 00 00 	movl   $0x0,-0x20(%ebp)
    264c:	8b 45 e4             	mov    -0x1c(%ebp),%eax
    264f:	c9                   	leave  
    2650:	c3                   	ret    

00002651 <ParseJbeInstr>:
    2651:	55                   	push   %ebp
    2652:	89 e5                	mov    %esp,%ebp
    2654:	83 ec 38             	sub    $0x38,%esp
    2657:	c7 45 f4 0f 00 00 00 	movl   $0xf,-0xc(%ebp)
    265e:	c6 45 de ff          	movb   $0xff,-0x22(%ebp)
    2662:	c6 45 df ff          	movb   $0xff,-0x21(%ebp)
    2666:	c7 45 f0 00 00 00 00 	movl   $0x0,-0x10(%ebp)
    266d:	c7 45 ec 00 00 00 00 	movl   $0x0,-0x14(%ebp)
    2674:	c7 45 e8 00 00 00 00 	movl   $0x0,-0x18(%ebp)
    267b:	c7 45 d4 00 00 00 00 	movl   $0x0,-0x2c(%ebp)
    2682:	c7 45 d8 00 00 00 00 	movl   $0x0,-0x28(%ebp)
    2689:	c6 45 de 86          	movb   $0x86,-0x22(%ebp)
    268d:	83 ec 0c             	sub    $0xc,%esp
    2690:	6a 0c                	push   $0xc
    2692:	e8 fc ff ff ff       	call   2693 <ParseJbeInstr+0x42>
    2697:	83 c4 10             	add    $0x10,%esp
    269a:	89 45 e8             	mov    %eax,-0x18(%ebp)
    269d:	8b 45 e8             	mov    -0x18(%ebp),%eax
    26a0:	c7 00 fc ff ff ff    	movl   $0xfffffffc,(%eax)
    26a6:	83 ec 04             	sub    $0x4,%esp
    26a9:	ff 75 d8             	pushl  -0x28(%ebp)
    26ac:	ff 75 d4             	pushl  -0x2c(%ebp)
    26af:	ff 75 e8             	pushl  -0x18(%ebp)
    26b2:	ff 75 ec             	pushl  -0x14(%ebp)
    26b5:	ff 75 f0             	pushl  -0x10(%ebp)
    26b8:	0f b7 45 de          	movzwl -0x22(%ebp),%eax
    26bc:	50                   	push   %eax
    26bd:	ff 75 f4             	pushl  -0xc(%ebp)
    26c0:	e8 fc ff ff ff       	call   26c1 <ParseJbeInstr+0x70>
    26c5:	83 c4 20             	add    $0x20,%esp
    26c8:	89 45 e4             	mov    %eax,-0x1c(%ebp)
    26cb:	c7 45 e0 00 00 00 00 	movl   $0x0,-0x20(%ebp)
    26d2:	8b 45 e4             	mov    -0x1c(%ebp),%eax
    26d5:	c9                   	leave  
    26d6:	c3                   	ret    

000026d7 <ParseJmpInstr>:
    26d7:	55                   	push   %ebp
    26d8:	89 e5                	mov    %esp,%ebp
    26da:	83 ec 48             	sub    $0x48,%esp
    26dd:	c7 45 e8 00 00 00 00 	movl   $0x0,-0x18(%ebp)
    26e4:	c6 45 ce ff          	movb   $0xff,-0x32(%ebp)
    26e8:	c6 45 cf ff          	movb   $0xff,-0x31(%ebp)
    26ec:	c7 45 f4 00 00 00 00 	movl   $0x0,-0xc(%ebp)
    26f3:	c7 45 f0 00 00 00 00 	movl   $0x0,-0x10(%ebp)
    26fa:	c7 45 ec 00 00 00 00 	movl   $0x0,-0x14(%ebp)
    2701:	c7 45 c4 00 00 00 00 	movl   $0x0,-0x3c(%ebp)
    2708:	c7 45 c8 00 00 00 00 	movl   $0x0,-0x38(%ebp)
    270f:	e8 fc ff ff ff       	call   2710 <ParseJmpInstr+0x39>
    2714:	89 45 e4             	mov    %eax,-0x1c(%ebp)
    2717:	8b 45 e4             	mov    -0x1c(%ebp),%eax
    271a:	8b 40 08             	mov    0x8(%eax),%eax
    271d:	89 45 e0             	mov    %eax,-0x20(%ebp)
    2720:	83 7d e0 01          	cmpl   $0x1,-0x20(%ebp)
    2724:	0f 85 97 00 00 00    	jne    27c1 <ParseJmpInstr+0xea>
    272a:	c6 45 ce ff          	movb   $0xff,-0x32(%ebp)
    272e:	83 ec 0c             	sub    $0xc,%esp
    2731:	6a 04                	push   $0x4
    2733:	e8 fc ff ff ff       	call   2734 <ParseJmpInstr+0x5d>
    2738:	83 c4 10             	add    $0x10,%esp
    273b:	89 45 f4             	mov    %eax,-0xc(%ebp)
    273e:	8b 45 f0             	mov    -0x10(%ebp),%eax
    2741:	8b 40 04             	mov    0x4(%eax),%eax
    2744:	89 45 ec             	mov    %eax,-0x14(%ebp)
    2747:	83 ec 0c             	sub    $0xc,%esp
    274a:	ff 75 ec             	pushl  -0x14(%ebp)
    274d:	e8 fc ff ff ff       	call   274e <ParseJmpInstr+0x77>
    2752:	83 c4 10             	add    $0x10,%esp
    2755:	89 45 dc             	mov    %eax,-0x24(%ebp)
    2758:	83 7d ec 00          	cmpl   $0x0,-0x14(%ebp)
    275c:	75 0d                	jne    276b <ParseJmpInstr+0x94>
    275e:	8b 45 f4             	mov    -0xc(%ebp),%eax
    2761:	0f b6 10             	movzbl (%eax),%edx
    2764:	83 e2 3f             	and    $0x3f,%edx
    2767:	88 10                	mov    %dl,(%eax)
    2769:	eb 30                	jmp    279b <ParseJmpInstr+0xc4>
    276b:	83 7d dc 01          	cmpl   $0x1,-0x24(%ebp)
    276f:	75 10                	jne    2781 <ParseJmpInstr+0xaa>
    2771:	8b 45 f4             	mov    -0xc(%ebp),%eax
    2774:	0f b6 10             	movzbl (%eax),%edx
    2777:	83 e2 3f             	and    $0x3f,%edx
    277a:	83 ca 40             	or     $0x40,%edx
    277d:	88 10                	mov    %dl,(%eax)
    277f:	eb 1a                	jmp    279b <ParseJmpInstr+0xc4>
    2781:	83 7d dc 02          	cmpl   $0x2,-0x24(%ebp)
    2785:	74 14                	je     279b <ParseJmpInstr+0xc4>
    2787:	83 7d dc 03          	cmpl   $0x3,-0x24(%ebp)
    278b:	75 0e                	jne    279b <ParseJmpInstr+0xc4>
    278d:	8b 45 f4             	mov    -0xc(%ebp),%eax
    2790:	0f b6 10             	movzbl (%eax),%edx
    2793:	83 e2 3f             	and    $0x3f,%edx
    2796:	83 ca 80             	or     $0xffffff80,%edx
    2799:	88 10                	mov    %dl,(%eax)
    279b:	8b 45 f4             	mov    -0xc(%ebp),%eax
    279e:	0f b6 10             	movzbl (%eax),%edx
    27a1:	83 e2 c7             	and    $0xffffffc7,%edx
    27a4:	83 ca 20             	or     $0x20,%edx
    27a7:	88 10                	mov    %dl,(%eax)
    27a9:	8b 45 f4             	mov    -0xc(%ebp),%eax
    27ac:	0f b6 10             	movzbl (%eax),%edx
    27af:	83 e2 f8             	and    $0xfffffff8,%edx
    27b2:	83 ca 04             	or     $0x4,%edx
    27b5:	88 10                	mov    %dl,(%eax)
    27b7:	e8 fc ff ff ff       	call   27b8 <ParseJmpInstr+0xe1>
    27bc:	89 45 f0             	mov    %eax,-0x10(%ebp)
    27bf:	eb 11                	jmp    27d2 <ParseJmpInstr+0xfb>
    27c1:	83 7d e0 05          	cmpl   $0x5,-0x20(%ebp)
    27c5:	75 0b                	jne    27d2 <ParseJmpInstr+0xfb>
    27c7:	c6 45 ce e9          	movb   $0xe9,-0x32(%ebp)
    27cb:	c7 45 ec fc ff ff ff 	movl   $0xfffffffc,-0x14(%ebp)
    27d2:	83 ec 0c             	sub    $0xc,%esp
    27d5:	6a 0c                	push   $0xc
    27d7:	e8 fc ff ff ff       	call   27d8 <ParseJmpInstr+0x101>
    27dc:	83 c4 10             	add    $0x10,%esp
    27df:	89 45 d8             	mov    %eax,-0x28(%ebp)
    27e2:	8b 45 d8             	mov    -0x28(%ebp),%eax
    27e5:	8b 55 ec             	mov    -0x14(%ebp),%edx
    27e8:	89 10                	mov    %edx,(%eax)
    27ea:	83 ec 04             	sub    $0x4,%esp
    27ed:	ff 75 c8             	pushl  -0x38(%ebp)
    27f0:	ff 75 c4             	pushl  -0x3c(%ebp)
    27f3:	ff 75 d8             	pushl  -0x28(%ebp)
    27f6:	ff 75 f0             	pushl  -0x10(%ebp)
    27f9:	ff 75 f4             	pushl  -0xc(%ebp)
    27fc:	0f b7 45 ce          	movzwl -0x32(%ebp),%eax
    2800:	50                   	push   %eax
    2801:	ff 75 e8             	pushl  -0x18(%ebp)
    2804:	e8 fc ff ff ff       	call   2805 <ParseJmpInstr+0x12e>
    2809:	83 c4 20             	add    $0x20,%esp
    280c:	89 45 d4             	mov    %eax,-0x2c(%ebp)
    280f:	c7 45 d0 00 00 00 00 	movl   $0x0,-0x30(%ebp)
    2816:	8b 45 d0             	mov    -0x30(%ebp),%eax
    2819:	8d 50 01             	lea    0x1(%eax),%edx
    281c:	89 55 d0             	mov    %edx,-0x30(%ebp)
    281f:	8b 55 d4             	mov    -0x2c(%ebp),%edx
    2822:	8d 48 08             	lea    0x8(%eax),%ecx
    2825:	8b 45 e4             	mov    -0x1c(%ebp),%eax
    2828:	89 44 8a 04          	mov    %eax,0x4(%edx,%ecx,4)
    282c:	8b 45 d4             	mov    -0x2c(%ebp),%eax
    282f:	c9                   	leave  
    2830:	c3                   	ret    

00002831 <ParsePushlInstr>:
    2831:	55                   	push   %ebp
    2832:	89 e5                	mov    %esp,%ebp
    2834:	83 ec 48             	sub    $0x48,%esp
    2837:	c7 45 e8 ff ff ff ff 	movl   $0xffffffff,-0x18(%ebp)
    283e:	c6 45 ce ff          	movb   $0xff,-0x32(%ebp)
    2842:	c6 45 cf ff          	movb   $0xff,-0x31(%ebp)
    2846:	c7 45 f4 00 00 00 00 	movl   $0x0,-0xc(%ebp)
    284d:	c7 45 f0 00 00 00 00 	movl   $0x0,-0x10(%ebp)
    2854:	c7 45 ec 00 00 00 00 	movl   $0x0,-0x14(%ebp)
    285b:	c7 45 c4 00 00 00 00 	movl   $0x0,-0x3c(%ebp)
    2862:	c7 45 c8 00 00 00 00 	movl   $0x0,-0x38(%ebp)
    2869:	e8 fc ff ff ff       	call   286a <ParsePushlInstr+0x39>
    286e:	89 45 e4             	mov    %eax,-0x1c(%ebp)
    2871:	8b 45 e4             	mov    -0x1c(%ebp),%eax
    2874:	8b 40 08             	mov    0x8(%eax),%eax
    2877:	89 45 e0             	mov    %eax,-0x20(%ebp)
    287a:	83 7d e0 04          	cmpl   $0x4,-0x20(%ebp)
    287e:	75 16                	jne    2896 <ParsePushlInstr+0x65>
    2880:	8b 45 e4             	mov    -0x1c(%ebp),%eax
    2883:	8b 00                	mov    (%eax),%eax
    2885:	89 45 dc             	mov    %eax,-0x24(%ebp)
    2888:	8b 45 dc             	mov    -0x24(%ebp),%eax
    288b:	0f b6 00             	movzbl (%eax),%eax
    288e:	83 c0 50             	add    $0x50,%eax
    2891:	88 45 ce             	mov    %al,-0x32(%ebp)
    2894:	eb 7a                	jmp    2910 <ParsePushlInstr+0xdf>
    2896:	c6 45 ce ff          	movb   $0xff,-0x32(%ebp)
    289a:	83 ec 0c             	sub    $0xc,%esp
    289d:	6a 04                	push   $0x4
    289f:	e8 fc ff ff ff       	call   28a0 <ParsePushlInstr+0x6f>
    28a4:	83 c4 10             	add    $0x10,%esp
    28a7:	89 45 f4             	mov    %eax,-0xc(%ebp)
    28aa:	8b 45 f4             	mov    -0xc(%ebp),%eax
    28ad:	0f b6 10             	movzbl (%eax),%edx
    28b0:	83 e2 c7             	and    $0xffffffc7,%edx
    28b3:	83 ca 30             	or     $0x30,%edx
    28b6:	88 10                	mov    %dl,(%eax)
    28b8:	83 ec 0c             	sub    $0xc,%esp
    28bb:	ff 75 e4             	pushl  -0x1c(%ebp)
    28be:	e8 fc ff ff ff       	call   28bf <ParsePushlInstr+0x8e>
    28c3:	83 c4 10             	add    $0x10,%esp
    28c6:	89 45 d8             	mov    %eax,-0x28(%ebp)
    28c9:	8b 45 d8             	mov    -0x28(%ebp),%eax
    28cc:	8b 40 08             	mov    0x8(%eax),%eax
    28cf:	83 e0 03             	and    $0x3,%eax
    28d2:	8b 55 f4             	mov    -0xc(%ebp),%edx
    28d5:	c1 e0 06             	shl    $0x6,%eax
    28d8:	89 c1                	mov    %eax,%ecx
    28da:	0f b6 02             	movzbl (%edx),%eax
    28dd:	83 e0 3f             	and    $0x3f,%eax
    28e0:	09 c8                	or     %ecx,%eax
    28e2:	88 02                	mov    %al,(%edx)
    28e4:	8b 45 d8             	mov    -0x28(%ebp),%eax
    28e7:	8b 40 0c             	mov    0xc(%eax),%eax
    28ea:	83 e0 07             	and    $0x7,%eax
    28ed:	8b 55 f4             	mov    -0xc(%ebp),%edx
    28f0:	83 e0 07             	and    $0x7,%eax
    28f3:	89 c1                	mov    %eax,%ecx
    28f5:	0f b6 02             	movzbl (%edx),%eax
    28f8:	83 e0 f8             	and    $0xfffffff8,%eax
    28fb:	09 c8                	or     %ecx,%eax
    28fd:	88 02                	mov    %al,(%edx)
    28ff:	8b 45 d8             	mov    -0x28(%ebp),%eax
    2902:	8b 40 04             	mov    0x4(%eax),%eax
    2905:	89 45 f0             	mov    %eax,-0x10(%ebp)
    2908:	8b 45 d8             	mov    -0x28(%ebp),%eax
    290b:	8b 00                	mov    (%eax),%eax
    290d:	89 45 ec             	mov    %eax,-0x14(%ebp)
    2910:	83 ec 04             	sub    $0x4,%esp
    2913:	ff 75 c8             	pushl  -0x38(%ebp)
    2916:	ff 75 c4             	pushl  -0x3c(%ebp)
    2919:	ff 75 ec             	pushl  -0x14(%ebp)
    291c:	ff 75 f0             	pushl  -0x10(%ebp)
    291f:	ff 75 f4             	pushl  -0xc(%ebp)
    2922:	0f b7 45 ce          	movzwl -0x32(%ebp),%eax
    2926:	50                   	push   %eax
    2927:	ff 75 e8             	pushl  -0x18(%ebp)
    292a:	e8 fc ff ff ff       	call   292b <ParsePushlInstr+0xfa>
    292f:	83 c4 20             	add    $0x20,%esp
    2932:	89 45 d4             	mov    %eax,-0x2c(%ebp)
    2935:	c7 45 d0 00 00 00 00 	movl   $0x0,-0x30(%ebp)
    293c:	8b 45 d0             	mov    -0x30(%ebp),%eax
    293f:	8d 50 01             	lea    0x1(%eax),%edx
    2942:	89 55 d0             	mov    %edx,-0x30(%ebp)
    2945:	8b 55 d4             	mov    -0x2c(%ebp),%edx
    2948:	8d 48 08             	lea    0x8(%eax),%ecx
    294b:	8b 45 e4             	mov    -0x1c(%ebp),%eax
    294e:	89 44 8a 04          	mov    %eax,0x4(%edx,%ecx,4)
    2952:	8b 45 d4             	mov    -0x2c(%ebp),%eax
    2955:	c9                   	leave  
    2956:	c3                   	ret    

00002957 <ParsePoplInstr>:
    2957:	55                   	push   %ebp
    2958:	89 e5                	mov    %esp,%ebp
    295a:	83 ec 38             	sub    $0x38,%esp
    295d:	c7 45 f4 00 00 00 00 	movl   $0x0,-0xc(%ebp)
    2964:	c6 45 d6 ff          	movb   $0xff,-0x2a(%ebp)
    2968:	c6 45 d7 ff          	movb   $0xff,-0x29(%ebp)
    296c:	c7 45 f0 00 00 00 00 	movl   $0x0,-0x10(%ebp)
    2973:	c7 45 ec 00 00 00 00 	movl   $0x0,-0x14(%ebp)
    297a:	c7 45 e8 00 00 00 00 	movl   $0x0,-0x18(%ebp)
    2981:	c7 45 cc 00 00 00 00 	movl   $0x0,-0x34(%ebp)
    2988:	c7 45 d0 00 00 00 00 	movl   $0x0,-0x30(%ebp)
    298f:	c6 45 d6 58          	movb   $0x58,-0x2a(%ebp)
    2993:	e8 fc ff ff ff       	call   2994 <ParsePoplInstr+0x3d>
    2998:	89 45 e4             	mov    %eax,-0x1c(%ebp)
    299b:	8b 45 e4             	mov    -0x1c(%ebp),%eax
    299e:	8b 00                	mov    (%eax),%eax
    29a0:	89 45 e0             	mov    %eax,-0x20(%ebp)
    29a3:	83 ec 0c             	sub    $0xc,%esp
    29a6:	6a 04                	push   $0x4
    29a8:	e8 fc ff ff ff       	call   29a9 <ParsePoplInstr+0x52>
    29ad:	83 c4 10             	add    $0x10,%esp
    29b0:	89 45 f0             	mov    %eax,-0x10(%ebp)
    29b3:	8b 45 e0             	mov    -0x20(%ebp),%eax
    29b6:	0f b6 00             	movzbl (%eax),%eax
    29b9:	83 e0 07             	and    $0x7,%eax
    29bc:	89 c2                	mov    %eax,%edx
    29be:	8b 45 f0             	mov    -0x10(%ebp),%eax
    29c1:	83 e2 07             	and    $0x7,%edx
    29c4:	8d 0c d5 00 00 00 00 	lea    0x0(,%edx,8),%ecx
    29cb:	0f b6 10             	movzbl (%eax),%edx
    29ce:	83 e2 c7             	and    $0xffffffc7,%edx
    29d1:	09 ca                	or     %ecx,%edx
    29d3:	88 10                	mov    %dl,(%eax)
    29d5:	83 ec 04             	sub    $0x4,%esp
    29d8:	ff 75 d0             	pushl  -0x30(%ebp)
    29db:	ff 75 cc             	pushl  -0x34(%ebp)
    29de:	6a 00                	push   $0x0
    29e0:	ff 75 ec             	pushl  -0x14(%ebp)
    29e3:	ff 75 f0             	pushl  -0x10(%ebp)
    29e6:	0f b7 45 d6          	movzwl -0x2a(%ebp),%eax
    29ea:	50                   	push   %eax
    29eb:	ff 75 f4             	pushl  -0xc(%ebp)
    29ee:	e8 fc ff ff ff       	call   29ef <ParsePoplInstr+0x98>
    29f3:	83 c4 20             	add    $0x20,%esp
    29f6:	89 45 dc             	mov    %eax,-0x24(%ebp)
    29f9:	c7 45 d8 00 00 00 00 	movl   $0x0,-0x28(%ebp)
    2a00:	8b 45 d8             	mov    -0x28(%ebp),%eax
    2a03:	8d 50 01             	lea    0x1(%eax),%edx
    2a06:	89 55 d8             	mov    %edx,-0x28(%ebp)
    2a09:	8b 55 dc             	mov    -0x24(%ebp),%edx
    2a0c:	8d 48 08             	lea    0x8(%eax),%ecx
    2a0f:	8b 45 e4             	mov    -0x1c(%ebp),%eax
    2a12:	89 44 8a 04          	mov    %eax,0x4(%edx,%ecx,4)
    2a16:	8b 45 dc             	mov    -0x24(%ebp),%eax
    2a19:	c9                   	leave  
    2a1a:	c3                   	ret    

00002a1b <ParseIncbInstr>:
    2a1b:	55                   	push   %ebp
    2a1c:	89 e5                	mov    %esp,%ebp
    2a1e:	83 ec 48             	sub    $0x48,%esp
    2a21:	e8 fc ff ff ff       	call   2a22 <ParseIncbInstr+0x7>
    2a26:	89 45 ec             	mov    %eax,-0x14(%ebp)
    2a29:	c7 45 c4 00 00 00 00 	movl   $0x0,-0x3c(%ebp)
    2a30:	c7 45 c8 00 00 00 00 	movl   $0x0,-0x38(%ebp)
    2a37:	8b 45 ec             	mov    -0x14(%ebp),%eax
    2a3a:	8b 40 08             	mov    0x8(%eax),%eax
    2a3d:	89 45 e8             	mov    %eax,-0x18(%ebp)
    2a40:	c6 45 c2 ff          	movb   $0xff,-0x3e(%ebp)
    2a44:	c6 45 c3 ff          	movb   $0xff,-0x3d(%ebp)
    2a48:	c7 45 e4 ff ff ff ff 	movl   $0xffffffff,-0x1c(%ebp)
    2a4f:	c7 45 f4 00 00 00 00 	movl   $0x0,-0xc(%ebp)
    2a56:	c7 45 f0 00 00 00 00 	movl   $0x0,-0x10(%ebp)
    2a5d:	83 ec 0c             	sub    $0xc,%esp
    2a60:	6a 04                	push   $0x4
    2a62:	e8 fc ff ff ff       	call   2a63 <ParseIncbInstr+0x48>
    2a67:	83 c4 10             	add    $0x10,%esp
    2a6a:	89 45 e0             	mov    %eax,-0x20(%ebp)
    2a6d:	c6 45 c2 fe          	movb   $0xfe,-0x3e(%ebp)
    2a71:	83 7d e8 04          	cmpl   $0x4,-0x18(%ebp)
    2a75:	75 46                	jne    2abd <ParseIncbInstr+0xa2>
    2a77:	8b 45 ec             	mov    -0x14(%ebp),%eax
    2a7a:	8b 00                	mov    (%eax),%eax
    2a7c:	89 45 dc             	mov    %eax,-0x24(%ebp)
    2a7f:	8b 45 dc             	mov    -0x24(%ebp),%eax
    2a82:	0f b6 40 01          	movzbl 0x1(%eax),%eax
    2a86:	88 45 db             	mov    %al,-0x25(%ebp)
    2a89:	80 7d db 08          	cmpb   $0x8,-0x25(%ebp)
    2a8d:	0f 85 82 00 00 00    	jne    2b15 <ParseIncbInstr+0xfa>
    2a93:	8b 45 e0             	mov    -0x20(%ebp),%eax
    2a96:	0f b6 10             	movzbl (%eax),%edx
    2a99:	83 ca c0             	or     $0xffffffc0,%edx
    2a9c:	88 10                	mov    %dl,(%eax)
    2a9e:	8b 45 dc             	mov    -0x24(%ebp),%eax
    2aa1:	0f b6 00             	movzbl (%eax),%eax
    2aa4:	83 e0 07             	and    $0x7,%eax
    2aa7:	89 c2                	mov    %eax,%edx
    2aa9:	8b 45 e0             	mov    -0x20(%ebp),%eax
    2aac:	89 d1                	mov    %edx,%ecx
    2aae:	83 e1 07             	and    $0x7,%ecx
    2ab1:	0f b6 10             	movzbl (%eax),%edx
    2ab4:	83 e2 f8             	and    $0xfffffff8,%edx
    2ab7:	09 ca                	or     %ecx,%edx
    2ab9:	88 10                	mov    %dl,(%eax)
    2abb:	eb 58                	jmp    2b15 <ParseIncbInstr+0xfa>
    2abd:	83 ec 0c             	sub    $0xc,%esp
    2ac0:	ff 75 ec             	pushl  -0x14(%ebp)
    2ac3:	e8 fc ff ff ff       	call   2ac4 <ParseIncbInstr+0xa9>
    2ac8:	83 c4 10             	add    $0x10,%esp
    2acb:	89 45 d4             	mov    %eax,-0x2c(%ebp)
    2ace:	8b 45 d4             	mov    -0x2c(%ebp),%eax
    2ad1:	8b 40 08             	mov    0x8(%eax),%eax
    2ad4:	83 e0 03             	and    $0x3,%eax
    2ad7:	8b 55 e0             	mov    -0x20(%ebp),%edx
    2ada:	c1 e0 06             	shl    $0x6,%eax
    2add:	89 c1                	mov    %eax,%ecx
    2adf:	0f b6 02             	movzbl (%edx),%eax
    2ae2:	83 e0 3f             	and    $0x3f,%eax
    2ae5:	09 c8                	or     %ecx,%eax
    2ae7:	88 02                	mov    %al,(%edx)
    2ae9:	8b 45 d4             	mov    -0x2c(%ebp),%eax
    2aec:	8b 40 0c             	mov    0xc(%eax),%eax
    2aef:	83 e0 07             	and    $0x7,%eax
    2af2:	8b 55 e0             	mov    -0x20(%ebp),%edx
    2af5:	83 e0 07             	and    $0x7,%eax
    2af8:	89 c1                	mov    %eax,%ecx
    2afa:	0f b6 02             	movzbl (%edx),%eax
    2afd:	83 e0 f8             	and    $0xfffffff8,%eax
    2b00:	09 c8                	or     %ecx,%eax
    2b02:	88 02                	mov    %al,(%edx)
    2b04:	8b 45 d4             	mov    -0x2c(%ebp),%eax
    2b07:	8b 40 04             	mov    0x4(%eax),%eax
    2b0a:	89 45 f0             	mov    %eax,-0x10(%ebp)
    2b0d:	8b 45 d4             	mov    -0x2c(%ebp),%eax
    2b10:	8b 00                	mov    (%eax),%eax
    2b12:	89 45 f4             	mov    %eax,-0xc(%ebp)
    2b15:	83 ec 04             	sub    $0x4,%esp
    2b18:	ff 75 c8             	pushl  -0x38(%ebp)
    2b1b:	ff 75 c4             	pushl  -0x3c(%ebp)
    2b1e:	ff 75 f4             	pushl  -0xc(%ebp)
    2b21:	ff 75 f0             	pushl  -0x10(%ebp)
    2b24:	ff 75 e0             	pushl  -0x20(%ebp)
    2b27:	0f b7 45 c2          	movzwl -0x3e(%ebp),%eax
    2b2b:	50                   	push   %eax
    2b2c:	ff 75 e4             	pushl  -0x1c(%ebp)
    2b2f:	e8 fc ff ff ff       	call   2b30 <ParseIncbInstr+0x115>
    2b34:	83 c4 20             	add    $0x20,%esp
    2b37:	89 45 d0             	mov    %eax,-0x30(%ebp)
    2b3a:	c7 45 cc 00 00 00 00 	movl   $0x0,-0x34(%ebp)
    2b41:	8b 45 cc             	mov    -0x34(%ebp),%eax
    2b44:	8d 50 01             	lea    0x1(%eax),%edx
    2b47:	89 55 cc             	mov    %edx,-0x34(%ebp)
    2b4a:	8b 55 d0             	mov    -0x30(%ebp),%edx
    2b4d:	8d 48 08             	lea    0x8(%eax),%ecx
    2b50:	8b 45 ec             	mov    -0x14(%ebp),%eax
    2b53:	89 44 8a 04          	mov    %eax,0x4(%edx,%ecx,4)
    2b57:	8b 45 d0             	mov    -0x30(%ebp),%eax
    2b5a:	c9                   	leave  
    2b5b:	c3                   	ret    

00002b5c <ParseIncwInstr>:
    2b5c:	55                   	push   %ebp
    2b5d:	89 e5                	mov    %esp,%ebp
    2b5f:	83 ec 48             	sub    $0x48,%esp
    2b62:	c7 45 e8 ff ff ff ff 	movl   $0xffffffff,-0x18(%ebp)
    2b69:	c6 45 ca ff          	movb   $0xff,-0x36(%ebp)
    2b6d:	c6 45 cb ff          	movb   $0xff,-0x35(%ebp)
    2b71:	c7 45 f4 00 00 00 00 	movl   $0x0,-0xc(%ebp)
    2b78:	c7 45 f0 00 00 00 00 	movl   $0x0,-0x10(%ebp)
    2b7f:	c7 45 ec 00 00 00 00 	movl   $0x0,-0x14(%ebp)
    2b86:	c7 45 c0 00 00 00 00 	movl   $0x0,-0x40(%ebp)
    2b8d:	c7 45 c4 00 00 00 00 	movl   $0x0,-0x3c(%ebp)
    2b94:	e8 fc ff ff ff       	call   2b95 <ParseIncwInstr+0x39>
    2b99:	89 45 e4             	mov    %eax,-0x1c(%ebp)
    2b9c:	8b 45 e4             	mov    -0x1c(%ebp),%eax
    2b9f:	8b 40 08             	mov    0x8(%eax),%eax
    2ba2:	89 45 e0             	mov    %eax,-0x20(%ebp)
    2ba5:	c7 45 e8 66 00 00 00 	movl   $0x66,-0x18(%ebp)
    2bac:	83 7d e0 04          	cmpl   $0x4,-0x20(%ebp)
    2bb0:	75 2d                	jne    2bdf <ParseIncwInstr+0x83>
    2bb2:	8b 45 e4             	mov    -0x1c(%ebp),%eax
    2bb5:	8b 00                	mov    (%eax),%eax
    2bb7:	89 45 dc             	mov    %eax,-0x24(%ebp)
    2bba:	8b 45 dc             	mov    -0x24(%ebp),%eax
    2bbd:	0f b6 40 01          	movzbl 0x1(%eax),%eax
    2bc1:	88 45 db             	mov    %al,-0x25(%ebp)
    2bc4:	80 7d db 10          	cmpb   $0x10,-0x25(%ebp)
    2bc8:	75 7d                	jne    2c47 <ParseIncwInstr+0xeb>
    2bca:	8b 45 dc             	mov    -0x24(%ebp),%eax
    2bcd:	0f b6 00             	movzbl (%eax),%eax
    2bd0:	83 c0 40             	add    $0x40,%eax
    2bd3:	88 45 ca             	mov    %al,-0x36(%ebp)
    2bd6:	c7 45 f4 00 00 00 00 	movl   $0x0,-0xc(%ebp)
    2bdd:	eb 68                	jmp    2c47 <ParseIncwInstr+0xeb>
    2bdf:	83 ec 0c             	sub    $0xc,%esp
    2be2:	6a 04                	push   $0x4
    2be4:	e8 fc ff ff ff       	call   2be5 <ParseIncwInstr+0x89>
    2be9:	83 c4 10             	add    $0x10,%esp
    2bec:	89 45 f4             	mov    %eax,-0xc(%ebp)
    2bef:	83 ec 0c             	sub    $0xc,%esp
    2bf2:	ff 75 e4             	pushl  -0x1c(%ebp)
    2bf5:	e8 fc ff ff ff       	call   2bf6 <ParseIncwInstr+0x9a>
    2bfa:	83 c4 10             	add    $0x10,%esp
    2bfd:	89 45 d4             	mov    %eax,-0x2c(%ebp)
    2c00:	8b 45 d4             	mov    -0x2c(%ebp),%eax
    2c03:	8b 40 08             	mov    0x8(%eax),%eax
    2c06:	83 e0 03             	and    $0x3,%eax
    2c09:	8b 55 f4             	mov    -0xc(%ebp),%edx
    2c0c:	c1 e0 06             	shl    $0x6,%eax
    2c0f:	89 c1                	mov    %eax,%ecx
    2c11:	0f b6 02             	movzbl (%edx),%eax
    2c14:	83 e0 3f             	and    $0x3f,%eax
    2c17:	09 c8                	or     %ecx,%eax
    2c19:	88 02                	mov    %al,(%edx)
    2c1b:	8b 45 d4             	mov    -0x2c(%ebp),%eax
    2c1e:	8b 40 0c             	mov    0xc(%eax),%eax
    2c21:	83 e0 07             	and    $0x7,%eax
    2c24:	8b 55 f4             	mov    -0xc(%ebp),%edx
    2c27:	83 e0 07             	and    $0x7,%eax
    2c2a:	89 c1                	mov    %eax,%ecx
    2c2c:	0f b6 02             	movzbl (%edx),%eax
    2c2f:	83 e0 f8             	and    $0xfffffff8,%eax
    2c32:	09 c8                	or     %ecx,%eax
    2c34:	88 02                	mov    %al,(%edx)
    2c36:	8b 45 d4             	mov    -0x2c(%ebp),%eax
    2c39:	8b 00                	mov    (%eax),%eax
    2c3b:	89 45 ec             	mov    %eax,-0x14(%ebp)
    2c3e:	8b 45 d4             	mov    -0x2c(%ebp),%eax
    2c41:	8b 40 04             	mov    0x4(%eax),%eax
    2c44:	89 45 f0             	mov    %eax,-0x10(%ebp)
    2c47:	83 ec 04             	sub    $0x4,%esp
    2c4a:	ff 75 c4             	pushl  -0x3c(%ebp)
    2c4d:	ff 75 c0             	pushl  -0x40(%ebp)
    2c50:	ff 75 ec             	pushl  -0x14(%ebp)
    2c53:	ff 75 f0             	pushl  -0x10(%ebp)
    2c56:	ff 75 f4             	pushl  -0xc(%ebp)
    2c59:	0f b7 45 ca          	movzwl -0x36(%ebp),%eax
    2c5d:	50                   	push   %eax
    2c5e:	ff 75 e8             	pushl  -0x18(%ebp)
    2c61:	e8 fc ff ff ff       	call   2c62 <ParseIncwInstr+0x106>
    2c66:	83 c4 20             	add    $0x20,%esp
    2c69:	89 45 d0             	mov    %eax,-0x30(%ebp)
    2c6c:	c7 45 cc 00 00 00 00 	movl   $0x0,-0x34(%ebp)
    2c73:	8b 45 cc             	mov    -0x34(%ebp),%eax
    2c76:	8d 50 01             	lea    0x1(%eax),%edx
    2c79:	89 55 cc             	mov    %edx,-0x34(%ebp)
    2c7c:	8b 55 d0             	mov    -0x30(%ebp),%edx
    2c7f:	8d 48 08             	lea    0x8(%eax),%ecx
    2c82:	8b 45 e4             	mov    -0x1c(%ebp),%eax
    2c85:	89 44 8a 04          	mov    %eax,0x4(%edx,%ecx,4)
    2c89:	8b 45 d0             	mov    -0x30(%ebp),%eax
    2c8c:	c9                   	leave  
    2c8d:	c3                   	ret    

00002c8e <ParseInclInstr>:
    2c8e:	55                   	push   %ebp
    2c8f:	89 e5                	mov    %esp,%ebp
    2c91:	83 ec 48             	sub    $0x48,%esp
    2c94:	c7 45 e8 ff ff ff ff 	movl   $0xffffffff,-0x18(%ebp)
    2c9b:	c6 45 ca ff          	movb   $0xff,-0x36(%ebp)
    2c9f:	c6 45 cb ff          	movb   $0xff,-0x35(%ebp)
    2ca3:	c7 45 f4 00 00 00 00 	movl   $0x0,-0xc(%ebp)
    2caa:	c7 45 f0 00 00 00 00 	movl   $0x0,-0x10(%ebp)
    2cb1:	c7 45 ec 00 00 00 00 	movl   $0x0,-0x14(%ebp)
    2cb8:	c7 45 c0 00 00 00 00 	movl   $0x0,-0x40(%ebp)
    2cbf:	c7 45 c4 00 00 00 00 	movl   $0x0,-0x3c(%ebp)
    2cc6:	e8 fc ff ff ff       	call   2cc7 <ParseInclInstr+0x39>
    2ccb:	89 45 e4             	mov    %eax,-0x1c(%ebp)
    2cce:	8b 45 e4             	mov    -0x1c(%ebp),%eax
    2cd1:	8b 40 08             	mov    0x8(%eax),%eax
    2cd4:	89 45 e0             	mov    %eax,-0x20(%ebp)
    2cd7:	83 7d e0 04          	cmpl   $0x4,-0x20(%ebp)
    2cdb:	75 2d                	jne    2d0a <ParseInclInstr+0x7c>
    2cdd:	8b 45 e4             	mov    -0x1c(%ebp),%eax
    2ce0:	8b 00                	mov    (%eax),%eax
    2ce2:	89 45 dc             	mov    %eax,-0x24(%ebp)
    2ce5:	8b 45 dc             	mov    -0x24(%ebp),%eax
    2ce8:	0f b6 40 01          	movzbl 0x1(%eax),%eax
    2cec:	88 45 db             	mov    %al,-0x25(%ebp)
    2cef:	80 7d db 20          	cmpb   $0x20,-0x25(%ebp)
    2cf3:	75 7d                	jne    2d72 <ParseInclInstr+0xe4>
    2cf5:	8b 45 dc             	mov    -0x24(%ebp),%eax
    2cf8:	0f b6 00             	movzbl (%eax),%eax
    2cfb:	83 c0 40             	add    $0x40,%eax
    2cfe:	88 45 ca             	mov    %al,-0x36(%ebp)
    2d01:	c7 45 f4 00 00 00 00 	movl   $0x0,-0xc(%ebp)
    2d08:	eb 68                	jmp    2d72 <ParseInclInstr+0xe4>
    2d0a:	83 ec 0c             	sub    $0xc,%esp
    2d0d:	6a 04                	push   $0x4
    2d0f:	e8 fc ff ff ff       	call   2d10 <ParseInclInstr+0x82>
    2d14:	83 c4 10             	add    $0x10,%esp
    2d17:	89 45 f4             	mov    %eax,-0xc(%ebp)
    2d1a:	83 ec 0c             	sub    $0xc,%esp
    2d1d:	ff 75 e4             	pushl  -0x1c(%ebp)
    2d20:	e8 fc ff ff ff       	call   2d21 <ParseInclInstr+0x93>
    2d25:	83 c4 10             	add    $0x10,%esp
    2d28:	89 45 d4             	mov    %eax,-0x2c(%ebp)
    2d2b:	8b 45 d4             	mov    -0x2c(%ebp),%eax
    2d2e:	8b 40 08             	mov    0x8(%eax),%eax
    2d31:	83 e0 03             	and    $0x3,%eax
    2d34:	8b 55 f4             	mov    -0xc(%ebp),%edx
    2d37:	c1 e0 06             	shl    $0x6,%eax
    2d3a:	89 c1                	mov    %eax,%ecx
    2d3c:	0f b6 02             	movzbl (%edx),%eax
    2d3f:	83 e0 3f             	and    $0x3f,%eax
    2d42:	09 c8                	or     %ecx,%eax
    2d44:	88 02                	mov    %al,(%edx)
    2d46:	8b 45 d4             	mov    -0x2c(%ebp),%eax
    2d49:	8b 40 0c             	mov    0xc(%eax),%eax
    2d4c:	83 e0 07             	and    $0x7,%eax
    2d4f:	8b 55 f4             	mov    -0xc(%ebp),%edx
    2d52:	83 e0 07             	and    $0x7,%eax
    2d55:	89 c1                	mov    %eax,%ecx
    2d57:	0f b6 02             	movzbl (%edx),%eax
    2d5a:	83 e0 f8             	and    $0xfffffff8,%eax
    2d5d:	09 c8                	or     %ecx,%eax
    2d5f:	88 02                	mov    %al,(%edx)
    2d61:	8b 45 d4             	mov    -0x2c(%ebp),%eax
    2d64:	8b 00                	mov    (%eax),%eax
    2d66:	89 45 ec             	mov    %eax,-0x14(%ebp)
    2d69:	8b 45 d4             	mov    -0x2c(%ebp),%eax
    2d6c:	8b 40 04             	mov    0x4(%eax),%eax
    2d6f:	89 45 f0             	mov    %eax,-0x10(%ebp)
    2d72:	83 ec 04             	sub    $0x4,%esp
    2d75:	ff 75 c4             	pushl  -0x3c(%ebp)
    2d78:	ff 75 c0             	pushl  -0x40(%ebp)
    2d7b:	ff 75 ec             	pushl  -0x14(%ebp)
    2d7e:	ff 75 f0             	pushl  -0x10(%ebp)
    2d81:	ff 75 f4             	pushl  -0xc(%ebp)
    2d84:	0f b7 45 ca          	movzwl -0x36(%ebp),%eax
    2d88:	50                   	push   %eax
    2d89:	ff 75 e8             	pushl  -0x18(%ebp)
    2d8c:	e8 fc ff ff ff       	call   2d8d <ParseInclInstr+0xff>
    2d91:	83 c4 20             	add    $0x20,%esp
    2d94:	89 45 d0             	mov    %eax,-0x30(%ebp)
    2d97:	c7 45 cc 00 00 00 00 	movl   $0x0,-0x34(%ebp)
    2d9e:	8b 45 cc             	mov    -0x34(%ebp),%eax
    2da1:	8d 50 01             	lea    0x1(%eax),%edx
    2da4:	89 55 cc             	mov    %edx,-0x34(%ebp)
    2da7:	8b 55 d0             	mov    -0x30(%ebp),%edx
    2daa:	8d 48 08             	lea    0x8(%eax),%ecx
    2dad:	8b 45 e4             	mov    -0x1c(%ebp),%eax
    2db0:	89 44 8a 04          	mov    %eax,0x4(%edx,%ecx,4)
    2db4:	8b 45 d0             	mov    -0x30(%ebp),%eax
    2db7:	c9                   	leave  
    2db8:	c3                   	ret    

00002db9 <ParseDecbInstr>:
    2db9:	55                   	push   %ebp
    2dba:	89 e5                	mov    %esp,%ebp
    2dbc:	83 ec 48             	sub    $0x48,%esp
    2dbf:	e8 fc ff ff ff       	call   2dc0 <ParseDecbInstr+0x7>
    2dc4:	89 45 ec             	mov    %eax,-0x14(%ebp)
    2dc7:	c7 45 c4 00 00 00 00 	movl   $0x0,-0x3c(%ebp)
    2dce:	c7 45 c8 00 00 00 00 	movl   $0x0,-0x38(%ebp)
    2dd5:	8b 45 ec             	mov    -0x14(%ebp),%eax
    2dd8:	8b 40 08             	mov    0x8(%eax),%eax
    2ddb:	89 45 e8             	mov    %eax,-0x18(%ebp)
    2dde:	c6 45 c2 ff          	movb   $0xff,-0x3e(%ebp)
    2de2:	c6 45 c3 ff          	movb   $0xff,-0x3d(%ebp)
    2de6:	c7 45 e4 ff ff ff ff 	movl   $0xffffffff,-0x1c(%ebp)
    2ded:	c7 45 f4 00 00 00 00 	movl   $0x0,-0xc(%ebp)
    2df4:	c7 45 f0 00 00 00 00 	movl   $0x0,-0x10(%ebp)
    2dfb:	83 ec 0c             	sub    $0xc,%esp
    2dfe:	6a 04                	push   $0x4
    2e00:	e8 fc ff ff ff       	call   2e01 <ParseDecbInstr+0x48>
    2e05:	83 c4 10             	add    $0x10,%esp
    2e08:	89 45 e0             	mov    %eax,-0x20(%ebp)
    2e0b:	c6 45 c2 fe          	movb   $0xfe,-0x3e(%ebp)
    2e0f:	83 7d e8 04          	cmpl   $0x4,-0x18(%ebp)
    2e13:	75 54                	jne    2e69 <ParseDecbInstr+0xb0>
    2e15:	8b 45 ec             	mov    -0x14(%ebp),%eax
    2e18:	8b 00                	mov    (%eax),%eax
    2e1a:	89 45 dc             	mov    %eax,-0x24(%ebp)
    2e1d:	8b 45 dc             	mov    -0x24(%ebp),%eax
    2e20:	0f b6 40 01          	movzbl 0x1(%eax),%eax
    2e24:	88 45 db             	mov    %al,-0x25(%ebp)
    2e27:	80 7d db 08          	cmpb   $0x8,-0x25(%ebp)
    2e2b:	0f 85 90 00 00 00    	jne    2ec1 <ParseDecbInstr+0x108>
    2e31:	8b 45 e0             	mov    -0x20(%ebp),%eax
    2e34:	0f b6 10             	movzbl (%eax),%edx
    2e37:	83 ca c0             	or     $0xffffffc0,%edx
    2e3a:	88 10                	mov    %dl,(%eax)
    2e3c:	8b 45 e0             	mov    -0x20(%ebp),%eax
    2e3f:	0f b6 10             	movzbl (%eax),%edx
    2e42:	83 e2 c7             	and    $0xffffffc7,%edx
    2e45:	83 ca 08             	or     $0x8,%edx
    2e48:	88 10                	mov    %dl,(%eax)
    2e4a:	8b 45 dc             	mov    -0x24(%ebp),%eax
    2e4d:	0f b6 00             	movzbl (%eax),%eax
    2e50:	83 e0 07             	and    $0x7,%eax
    2e53:	89 c2                	mov    %eax,%edx
    2e55:	8b 45 e0             	mov    -0x20(%ebp),%eax
    2e58:	89 d1                	mov    %edx,%ecx
    2e5a:	83 e1 07             	and    $0x7,%ecx
    2e5d:	0f b6 10             	movzbl (%eax),%edx
    2e60:	83 e2 f8             	and    $0xfffffff8,%edx
    2e63:	09 ca                	or     %ecx,%edx
    2e65:	88 10                	mov    %dl,(%eax)
    2e67:	eb 58                	jmp    2ec1 <ParseDecbInstr+0x108>
    2e69:	83 ec 0c             	sub    $0xc,%esp
    2e6c:	ff 75 ec             	pushl  -0x14(%ebp)
    2e6f:	e8 fc ff ff ff       	call   2e70 <ParseDecbInstr+0xb7>
    2e74:	83 c4 10             	add    $0x10,%esp
    2e77:	89 45 d4             	mov    %eax,-0x2c(%ebp)
    2e7a:	8b 45 d4             	mov    -0x2c(%ebp),%eax
    2e7d:	8b 40 08             	mov    0x8(%eax),%eax
    2e80:	83 e0 03             	and    $0x3,%eax
    2e83:	8b 55 e0             	mov    -0x20(%ebp),%edx
    2e86:	c1 e0 06             	shl    $0x6,%eax
    2e89:	89 c1                	mov    %eax,%ecx
    2e8b:	0f b6 02             	movzbl (%edx),%eax
    2e8e:	83 e0 3f             	and    $0x3f,%eax
    2e91:	09 c8                	or     %ecx,%eax
    2e93:	88 02                	mov    %al,(%edx)
    2e95:	8b 45 d4             	mov    -0x2c(%ebp),%eax
    2e98:	8b 40 0c             	mov    0xc(%eax),%eax
    2e9b:	83 e0 07             	and    $0x7,%eax
    2e9e:	8b 55 e0             	mov    -0x20(%ebp),%edx
    2ea1:	83 e0 07             	and    $0x7,%eax
    2ea4:	89 c1                	mov    %eax,%ecx
    2ea6:	0f b6 02             	movzbl (%edx),%eax
    2ea9:	83 e0 f8             	and    $0xfffffff8,%eax
    2eac:	09 c8                	or     %ecx,%eax
    2eae:	88 02                	mov    %al,(%edx)
    2eb0:	8b 45 d4             	mov    -0x2c(%ebp),%eax
    2eb3:	8b 00                	mov    (%eax),%eax
    2eb5:	89 45 f4             	mov    %eax,-0xc(%ebp)
    2eb8:	8b 45 d4             	mov    -0x2c(%ebp),%eax
    2ebb:	8b 40 04             	mov    0x4(%eax),%eax
    2ebe:	89 45 f0             	mov    %eax,-0x10(%ebp)
    2ec1:	83 ec 04             	sub    $0x4,%esp
    2ec4:	ff 75 c8             	pushl  -0x38(%ebp)
    2ec7:	ff 75 c4             	pushl  -0x3c(%ebp)
    2eca:	ff 75 f4             	pushl  -0xc(%ebp)
    2ecd:	ff 75 f0             	pushl  -0x10(%ebp)
    2ed0:	ff 75 e0             	pushl  -0x20(%ebp)
    2ed3:	0f b7 45 c2          	movzwl -0x3e(%ebp),%eax
    2ed7:	50                   	push   %eax
    2ed8:	ff 75 e4             	pushl  -0x1c(%ebp)
    2edb:	e8 fc ff ff ff       	call   2edc <ParseDecbInstr+0x123>
    2ee0:	83 c4 20             	add    $0x20,%esp
    2ee3:	89 45 d0             	mov    %eax,-0x30(%ebp)
    2ee6:	c7 45 cc 00 00 00 00 	movl   $0x0,-0x34(%ebp)
    2eed:	8b 45 cc             	mov    -0x34(%ebp),%eax
    2ef0:	8d 50 01             	lea    0x1(%eax),%edx
    2ef3:	89 55 cc             	mov    %edx,-0x34(%ebp)
    2ef6:	8b 55 d0             	mov    -0x30(%ebp),%edx
    2ef9:	8d 48 08             	lea    0x8(%eax),%ecx
    2efc:	8b 45 ec             	mov    -0x14(%ebp),%eax
    2eff:	89 44 8a 04          	mov    %eax,0x4(%edx,%ecx,4)
    2f03:	8b 45 d0             	mov    -0x30(%ebp),%eax
    2f06:	c9                   	leave  
    2f07:	c3                   	ret    

00002f08 <ParseDecwInstr>:
    2f08:	55                   	push   %ebp
    2f09:	89 e5                	mov    %esp,%ebp
    2f0b:	83 ec 48             	sub    $0x48,%esp
    2f0e:	c7 45 e8 ff ff ff ff 	movl   $0xffffffff,-0x18(%ebp)
    2f15:	c6 45 ca ff          	movb   $0xff,-0x36(%ebp)
    2f19:	c6 45 cb ff          	movb   $0xff,-0x35(%ebp)
    2f1d:	c7 45 f4 00 00 00 00 	movl   $0x0,-0xc(%ebp)
    2f24:	c7 45 f0 00 00 00 00 	movl   $0x0,-0x10(%ebp)
    2f2b:	c7 45 ec 00 00 00 00 	movl   $0x0,-0x14(%ebp)
    2f32:	c7 45 c0 00 00 00 00 	movl   $0x0,-0x40(%ebp)
    2f39:	c7 45 c4 00 00 00 00 	movl   $0x0,-0x3c(%ebp)
    2f40:	e8 fc ff ff ff       	call   2f41 <ParseDecwInstr+0x39>
    2f45:	89 45 e4             	mov    %eax,-0x1c(%ebp)
    2f48:	8b 45 e4             	mov    -0x1c(%ebp),%eax
    2f4b:	8b 40 08             	mov    0x8(%eax),%eax
    2f4e:	89 45 e0             	mov    %eax,-0x20(%ebp)
    2f51:	c7 45 e8 66 00 00 00 	movl   $0x66,-0x18(%ebp)
    2f58:	83 7d e0 04          	cmpl   $0x4,-0x20(%ebp)
    2f5c:	75 34                	jne    2f92 <ParseDecwInstr+0x8a>
    2f5e:	8b 45 e4             	mov    -0x1c(%ebp),%eax
    2f61:	8b 00                	mov    (%eax),%eax
    2f63:	89 45 dc             	mov    %eax,-0x24(%ebp)
    2f66:	8b 45 dc             	mov    -0x24(%ebp),%eax
    2f69:	0f b6 40 01          	movzbl 0x1(%eax),%eax
    2f6d:	88 45 db             	mov    %al,-0x25(%ebp)
    2f70:	80 7d db 10          	cmpb   $0x10,-0x25(%ebp)
    2f74:	0f 85 9e 00 00 00    	jne    3018 <ParseDecwInstr+0x110>
    2f7a:	8b 45 dc             	mov    -0x24(%ebp),%eax
    2f7d:	0f b6 00             	movzbl (%eax),%eax
    2f80:	83 c0 48             	add    $0x48,%eax
    2f83:	88 45 ca             	mov    %al,-0x36(%ebp)
    2f86:	c7 45 f4 00 00 00 00 	movl   $0x0,-0xc(%ebp)
    2f8d:	e9 86 00 00 00       	jmp    3018 <ParseDecwInstr+0x110>
    2f92:	83 ec 0c             	sub    $0xc,%esp
    2f95:	6a 04                	push   $0x4
    2f97:	e8 fc ff ff ff       	call   2f98 <ParseDecwInstr+0x90>
    2f9c:	83 c4 10             	add    $0x10,%esp
    2f9f:	89 45 f4             	mov    %eax,-0xc(%ebp)
    2fa2:	8b 45 f4             	mov    -0xc(%ebp),%eax
    2fa5:	0f b6 10             	movzbl (%eax),%edx
    2fa8:	83 e2 c7             	and    $0xffffffc7,%edx
    2fab:	83 ca 08             	or     $0x8,%edx
    2fae:	88 10                	mov    %dl,(%eax)
    2fb0:	83 ec 0c             	sub    $0xc,%esp
    2fb3:	ff 75 e4             	pushl  -0x1c(%ebp)
    2fb6:	e8 fc ff ff ff       	call   2fb7 <ParseDecwInstr+0xaf>
    2fbb:	83 c4 10             	add    $0x10,%esp
    2fbe:	89 45 d4             	mov    %eax,-0x2c(%ebp)
    2fc1:	8b 45 d4             	mov    -0x2c(%ebp),%eax
    2fc4:	8b 40 08             	mov    0x8(%eax),%eax
    2fc7:	83 e0 03             	and    $0x3,%eax
    2fca:	8b 55 f4             	mov    -0xc(%ebp),%edx
    2fcd:	c1 e0 06             	shl    $0x6,%eax
    2fd0:	89 c1                	mov    %eax,%ecx
    2fd2:	0f b6 02             	movzbl (%edx),%eax
    2fd5:	83 e0 3f             	and    $0x3f,%eax
    2fd8:	09 c8                	or     %ecx,%eax
    2fda:	88 02                	mov    %al,(%edx)
    2fdc:	8b 45 d4             	mov    -0x2c(%ebp),%eax
    2fdf:	8b 40 0c             	mov    0xc(%eax),%eax
    2fe2:	83 e0 07             	and    $0x7,%eax
    2fe5:	8b 55 f4             	mov    -0xc(%ebp),%edx
    2fe8:	83 e0 07             	and    $0x7,%eax
    2feb:	89 c1                	mov    %eax,%ecx
    2fed:	0f b6 02             	movzbl (%edx),%eax
    2ff0:	83 e0 f8             	and    $0xfffffff8,%eax
    2ff3:	09 c8                	or     %ecx,%eax
    2ff5:	88 02                	mov    %al,(%edx)
    2ff7:	83 ec 0c             	sub    $0xc,%esp
    2ffa:	6a 0c                	push   $0xc
    2ffc:	e8 fc ff ff ff       	call   2ffd <ParseDecwInstr+0xf5>
    3001:	83 c4 10             	add    $0x10,%esp
    3004:	89 45 ec             	mov    %eax,-0x14(%ebp)
    3007:	8b 45 d4             	mov    -0x2c(%ebp),%eax
    300a:	8b 00                	mov    (%eax),%eax
    300c:	89 45 ec             	mov    %eax,-0x14(%ebp)
    300f:	8b 45 d4             	mov    -0x2c(%ebp),%eax
    3012:	8b 40 04             	mov    0x4(%eax),%eax
    3015:	89 45 f0             	mov    %eax,-0x10(%ebp)
    3018:	83 ec 04             	sub    $0x4,%esp
    301b:	ff 75 c4             	pushl  -0x3c(%ebp)
    301e:	ff 75 c0             	pushl  -0x40(%ebp)
    3021:	ff 75 ec             	pushl  -0x14(%ebp)
    3024:	ff 75 f0             	pushl  -0x10(%ebp)
    3027:	ff 75 f4             	pushl  -0xc(%ebp)
    302a:	0f b7 45 ca          	movzwl -0x36(%ebp),%eax
    302e:	50                   	push   %eax
    302f:	ff 75 e8             	pushl  -0x18(%ebp)
    3032:	e8 fc ff ff ff       	call   3033 <ParseDecwInstr+0x12b>
    3037:	83 c4 20             	add    $0x20,%esp
    303a:	89 45 d0             	mov    %eax,-0x30(%ebp)
    303d:	c7 45 cc 00 00 00 00 	movl   $0x0,-0x34(%ebp)
    3044:	8b 45 cc             	mov    -0x34(%ebp),%eax
    3047:	8d 50 01             	lea    0x1(%eax),%edx
    304a:	89 55 cc             	mov    %edx,-0x34(%ebp)
    304d:	8b 55 d0             	mov    -0x30(%ebp),%edx
    3050:	8d 48 08             	lea    0x8(%eax),%ecx
    3053:	8b 45 e4             	mov    -0x1c(%ebp),%eax
    3056:	89 44 8a 04          	mov    %eax,0x4(%edx,%ecx,4)
    305a:	8b 45 d0             	mov    -0x30(%ebp),%eax
    305d:	c9                   	leave  
    305e:	c3                   	ret    

0000305f <ParseDeclInstr>:
    305f:	55                   	push   %ebp
    3060:	89 e5                	mov    %esp,%ebp
    3062:	83 ec 48             	sub    $0x48,%esp
    3065:	c7 45 e8 ff ff ff ff 	movl   $0xffffffff,-0x18(%ebp)
    306c:	c6 45 ca ff          	movb   $0xff,-0x36(%ebp)
    3070:	c6 45 cb ff          	movb   $0xff,-0x35(%ebp)
    3074:	c7 45 f4 00 00 00 00 	movl   $0x0,-0xc(%ebp)
    307b:	c7 45 f0 00 00 00 00 	movl   $0x0,-0x10(%ebp)
    3082:	c7 45 ec 00 00 00 00 	movl   $0x0,-0x14(%ebp)
    3089:	c7 45 c0 00 00 00 00 	movl   $0x0,-0x40(%ebp)
    3090:	c7 45 c4 00 00 00 00 	movl   $0x0,-0x3c(%ebp)
    3097:	e8 fc ff ff ff       	call   3098 <ParseDeclInstr+0x39>
    309c:	89 45 e4             	mov    %eax,-0x1c(%ebp)
    309f:	8b 45 e4             	mov    -0x1c(%ebp),%eax
    30a2:	8b 40 08             	mov    0x8(%eax),%eax
    30a5:	89 45 e0             	mov    %eax,-0x20(%ebp)
    30a8:	83 7d e0 04          	cmpl   $0x4,-0x20(%ebp)
    30ac:	75 34                	jne    30e2 <ParseDeclInstr+0x83>
    30ae:	8b 45 e4             	mov    -0x1c(%ebp),%eax
    30b1:	8b 00                	mov    (%eax),%eax
    30b3:	89 45 dc             	mov    %eax,-0x24(%ebp)
    30b6:	8b 45 dc             	mov    -0x24(%ebp),%eax
    30b9:	0f b6 40 01          	movzbl 0x1(%eax),%eax
    30bd:	88 45 db             	mov    %al,-0x25(%ebp)
    30c0:	80 7d db 20          	cmpb   $0x20,-0x25(%ebp)
    30c4:	0f 85 9e 00 00 00    	jne    3168 <ParseDeclInstr+0x109>
    30ca:	8b 45 dc             	mov    -0x24(%ebp),%eax
    30cd:	0f b6 00             	movzbl (%eax),%eax
    30d0:	83 c0 48             	add    $0x48,%eax
    30d3:	88 45 ca             	mov    %al,-0x36(%ebp)
    30d6:	c7 45 f4 00 00 00 00 	movl   $0x0,-0xc(%ebp)
    30dd:	e9 86 00 00 00       	jmp    3168 <ParseDeclInstr+0x109>
    30e2:	83 ec 0c             	sub    $0xc,%esp
    30e5:	6a 04                	push   $0x4
    30e7:	e8 fc ff ff ff       	call   30e8 <ParseDeclInstr+0x89>
    30ec:	83 c4 10             	add    $0x10,%esp
    30ef:	89 45 f4             	mov    %eax,-0xc(%ebp)
    30f2:	8b 45 f4             	mov    -0xc(%ebp),%eax
    30f5:	0f b6 10             	movzbl (%eax),%edx
    30f8:	83 e2 c7             	and    $0xffffffc7,%edx
    30fb:	83 ca 08             	or     $0x8,%edx
    30fe:	88 10                	mov    %dl,(%eax)
    3100:	83 ec 0c             	sub    $0xc,%esp
    3103:	ff 75 e4             	pushl  -0x1c(%ebp)
    3106:	e8 fc ff ff ff       	call   3107 <ParseDeclInstr+0xa8>
    310b:	83 c4 10             	add    $0x10,%esp
    310e:	89 45 d4             	mov    %eax,-0x2c(%ebp)
    3111:	8b 45 d4             	mov    -0x2c(%ebp),%eax
    3114:	8b 40 08             	mov    0x8(%eax),%eax
    3117:	83 e0 03             	and    $0x3,%eax
    311a:	8b 55 f4             	mov    -0xc(%ebp),%edx
    311d:	c1 e0 06             	shl    $0x6,%eax
    3120:	89 c1                	mov    %eax,%ecx
    3122:	0f b6 02             	movzbl (%edx),%eax
    3125:	83 e0 3f             	and    $0x3f,%eax
    3128:	09 c8                	or     %ecx,%eax
    312a:	88 02                	mov    %al,(%edx)
    312c:	8b 45 d4             	mov    -0x2c(%ebp),%eax
    312f:	8b 40 0c             	mov    0xc(%eax),%eax
    3132:	83 e0 07             	and    $0x7,%eax
    3135:	8b 55 f4             	mov    -0xc(%ebp),%edx
    3138:	83 e0 07             	and    $0x7,%eax
    313b:	89 c1                	mov    %eax,%ecx
    313d:	0f b6 02             	movzbl (%edx),%eax
    3140:	83 e0 f8             	and    $0xfffffff8,%eax
    3143:	09 c8                	or     %ecx,%eax
    3145:	88 02                	mov    %al,(%edx)
    3147:	83 ec 0c             	sub    $0xc,%esp
    314a:	6a 0c                	push   $0xc
    314c:	e8 fc ff ff ff       	call   314d <ParseDeclInstr+0xee>
    3151:	83 c4 10             	add    $0x10,%esp
    3154:	89 45 ec             	mov    %eax,-0x14(%ebp)
    3157:	8b 45 d4             	mov    -0x2c(%ebp),%eax
    315a:	8b 00                	mov    (%eax),%eax
    315c:	89 45 ec             	mov    %eax,-0x14(%ebp)
    315f:	8b 45 d4             	mov    -0x2c(%ebp),%eax
    3162:	8b 40 04             	mov    0x4(%eax),%eax
    3165:	89 45 f0             	mov    %eax,-0x10(%ebp)
    3168:	83 ec 04             	sub    $0x4,%esp
    316b:	ff 75 c4             	pushl  -0x3c(%ebp)
    316e:	ff 75 c0             	pushl  -0x40(%ebp)
    3171:	ff 75 ec             	pushl  -0x14(%ebp)
    3174:	ff 75 f0             	pushl  -0x10(%ebp)
    3177:	ff 75 f4             	pushl  -0xc(%ebp)
    317a:	0f b7 45 ca          	movzwl -0x36(%ebp),%eax
    317e:	50                   	push   %eax
    317f:	ff 75 e8             	pushl  -0x18(%ebp)
    3182:	e8 fc ff ff ff       	call   3183 <ParseDeclInstr+0x124>
    3187:	83 c4 20             	add    $0x20,%esp
    318a:	89 45 d0             	mov    %eax,-0x30(%ebp)
    318d:	c7 45 cc 00 00 00 00 	movl   $0x0,-0x34(%ebp)
    3194:	8b 45 cc             	mov    -0x34(%ebp),%eax
    3197:	8d 50 01             	lea    0x1(%eax),%edx
    319a:	89 55 cc             	mov    %edx,-0x34(%ebp)
    319d:	8b 55 d0             	mov    -0x30(%ebp),%edx
    31a0:	8d 48 08             	lea    0x8(%eax),%ecx
    31a3:	8b 45 e4             	mov    -0x1c(%ebp),%eax
    31a6:	89 44 8a 04          	mov    %eax,0x4(%edx,%ecx,4)
    31aa:	8b 45 d0             	mov    -0x30(%ebp),%eax
    31ad:	c9                   	leave  
    31ae:	c3                   	ret    

000031af <ParseRepInstr>:
    31af:	55                   	push   %ebp
    31b0:	89 e5                	mov    %esp,%ebp
    31b2:	83 ec 28             	sub    $0x28,%esp
    31b5:	c6 45 ee f3          	movb   $0xf3,-0x12(%ebp)
    31b9:	c6 45 ef a4          	movb   $0xa4,-0x11(%ebp)
    31bd:	c7 45 e4 00 00 00 00 	movl   $0x0,-0x1c(%ebp)
    31c4:	c7 45 e8 00 00 00 00 	movl   $0x0,-0x18(%ebp)
    31cb:	83 ec 04             	sub    $0x4,%esp
    31ce:	ff 75 e8             	pushl  -0x18(%ebp)
    31d1:	ff 75 e4             	pushl  -0x1c(%ebp)
    31d4:	6a 00                	push   $0x0
    31d6:	6a 00                	push   $0x0
    31d8:	6a 00                	push   $0x0
    31da:	0f b7 45 ee          	movzwl -0x12(%ebp),%eax
    31de:	50                   	push   %eax
    31df:	6a 00                	push   $0x0
    31e1:	e8 fc ff ff ff       	call   31e2 <ParseRepInstr+0x33>
    31e6:	83 c4 20             	add    $0x20,%esp
    31e9:	89 45 f4             	mov    %eax,-0xc(%ebp)
    31ec:	c7 45 f0 00 00 00 00 	movl   $0x0,-0x10(%ebp)
    31f3:	8b 45 f4             	mov    -0xc(%ebp),%eax
    31f6:	c9                   	leave  
    31f7:	c3                   	ret    

000031f8 <ParseCallInstr>:
    31f8:	55                   	push   %ebp
    31f9:	89 e5                	mov    %esp,%ebp
    31fb:	83 ec 28             	sub    $0x28,%esp
    31fe:	c6 45 ea e8          	movb   $0xe8,-0x16(%ebp)
    3202:	c6 45 eb ff          	movb   $0xff,-0x15(%ebp)
    3206:	c7 45 e0 00 00 00 00 	movl   $0x0,-0x20(%ebp)
    320d:	c7 45 e4 00 00 00 00 	movl   $0x0,-0x1c(%ebp)
    3214:	83 ec 0c             	sub    $0xc,%esp
    3217:	6a 0c                	push   $0xc
    3219:	e8 fc ff ff ff       	call   321a <ParseCallInstr+0x22>
    321e:	83 c4 10             	add    $0x10,%esp
    3221:	89 45 f4             	mov    %eax,-0xc(%ebp)
    3224:	8b 45 f4             	mov    -0xc(%ebp),%eax
    3227:	c7 00 fc ff ff ff    	movl   $0xfffffffc,(%eax)
    322d:	83 ec 04             	sub    $0x4,%esp
    3230:	ff 75 e4             	pushl  -0x1c(%ebp)
    3233:	ff 75 e0             	pushl  -0x20(%ebp)
    3236:	ff 75 f4             	pushl  -0xc(%ebp)
    3239:	6a 00                	push   $0x0
    323b:	6a 00                	push   $0x0
    323d:	0f b7 45 ea          	movzwl -0x16(%ebp),%eax
    3241:	50                   	push   %eax
    3242:	6a 00                	push   $0x0
    3244:	e8 fc ff ff ff       	call   3245 <ParseCallInstr+0x4d>
    3249:	83 c4 20             	add    $0x20,%esp
    324c:	89 45 f0             	mov    %eax,-0x10(%ebp)
    324f:	c7 45 ec 00 00 00 00 	movl   $0x0,-0x14(%ebp)
    3256:	8b 45 f0             	mov    -0x10(%ebp),%eax
    3259:	c9                   	leave  
    325a:	c3                   	ret    

0000325b <ParseOrlInstr>:
    325b:	55                   	push   %ebp
    325c:	89 e5                	mov    %esp,%ebp
    325e:	83 ec 28             	sub    $0x28,%esp
    3261:	c7 45 e0 0d 00 00 00 	movl   $0xd,-0x20(%ebp)
    3268:	c7 45 e4 81 00 00 00 	movl   $0x81,-0x1c(%ebp)
    326f:	c7 45 e8 83 00 00 00 	movl   $0x83,-0x18(%ebp)
    3276:	c7 45 ec 09 00 00 00 	movl   $0x9,-0x14(%ebp)
    327d:	c7 45 f0 0b 00 00 00 	movl   $0xb,-0x10(%ebp)
    3284:	c7 45 f4 01 00 00 00 	movl   $0x1,-0xc(%ebp)
    328b:	8b 45 f4             	mov    -0xc(%ebp),%eax
    328e:	0f be c0             	movsbl %al,%eax
    3291:	83 ec 04             	sub    $0x4,%esp
    3294:	50                   	push   %eax
    3295:	ff 75 f0             	pushl  -0x10(%ebp)
    3298:	ff 75 ec             	pushl  -0x14(%ebp)
    329b:	ff 75 e8             	pushl  -0x18(%ebp)
    329e:	ff 75 e4             	pushl  -0x1c(%ebp)
    32a1:	ff 75 e0             	pushl  -0x20(%ebp)
    32a4:	ff 75 08             	pushl  0x8(%ebp)
    32a7:	e8 fc ff ff ff       	call   32a8 <ParseOrlInstr+0x4d>
    32ac:	83 c4 20             	add    $0x20,%esp
    32af:	c9                   	leave  
    32b0:	c3                   	ret    

000032b1 <ParseXorlInstr>:
    32b1:	55                   	push   %ebp
    32b2:	89 e5                	mov    %esp,%ebp
    32b4:	83 ec 28             	sub    $0x28,%esp
    32b7:	c7 45 e0 35 00 00 00 	movl   $0x35,-0x20(%ebp)
    32be:	c7 45 e4 81 00 00 00 	movl   $0x81,-0x1c(%ebp)
    32c5:	c7 45 e8 83 00 00 00 	movl   $0x83,-0x18(%ebp)
    32cc:	c7 45 ec 31 00 00 00 	movl   $0x31,-0x14(%ebp)
    32d3:	c7 45 f0 33 00 00 00 	movl   $0x33,-0x10(%ebp)
    32da:	c7 45 f4 06 00 00 00 	movl   $0x6,-0xc(%ebp)
    32e1:	8b 45 f4             	mov    -0xc(%ebp),%eax
    32e4:	0f be c0             	movsbl %al,%eax
    32e7:	83 ec 04             	sub    $0x4,%esp
    32ea:	50                   	push   %eax
    32eb:	ff 75 f0             	pushl  -0x10(%ebp)
    32ee:	ff 75 ec             	pushl  -0x14(%ebp)
    32f1:	ff 75 e8             	pushl  -0x18(%ebp)
    32f4:	ff 75 e4             	pushl  -0x1c(%ebp)
    32f7:	ff 75 e0             	pushl  -0x20(%ebp)
    32fa:	ff 75 08             	pushl  0x8(%ebp)
    32fd:	e8 fc ff ff ff       	call   32fe <ParseXorlInstr+0x4d>
    3302:	83 c4 20             	add    $0x20,%esp
    3305:	c9                   	leave  
    3306:	c3                   	ret    

00003307 <ParseAndlInstr>:
    3307:	55                   	push   %ebp
    3308:	89 e5                	mov    %esp,%ebp
    330a:	83 ec 28             	sub    $0x28,%esp
    330d:	c7 45 e0 25 00 00 00 	movl   $0x25,-0x20(%ebp)
    3314:	c7 45 e4 81 00 00 00 	movl   $0x81,-0x1c(%ebp)
    331b:	c7 45 e8 83 00 00 00 	movl   $0x83,-0x18(%ebp)
    3322:	c7 45 ec 21 00 00 00 	movl   $0x21,-0x14(%ebp)
    3329:	c7 45 f0 23 00 00 00 	movl   $0x23,-0x10(%ebp)
    3330:	c7 45 f4 04 00 00 00 	movl   $0x4,-0xc(%ebp)
    3337:	8b 45 f4             	mov    -0xc(%ebp),%eax
    333a:	0f be c0             	movsbl %al,%eax
    333d:	83 ec 04             	sub    $0x4,%esp
    3340:	50                   	push   %eax
    3341:	ff 75 f0             	pushl  -0x10(%ebp)
    3344:	ff 75 ec             	pushl  -0x14(%ebp)
    3347:	ff 75 e8             	pushl  -0x18(%ebp)
    334a:	ff 75 e4             	pushl  -0x1c(%ebp)
    334d:	ff 75 e0             	pushl  -0x20(%ebp)
    3350:	ff 75 08             	pushl  0x8(%ebp)
    3353:	e8 fc ff ff ff       	call   3354 <ParseAndlInstr+0x4d>
    3358:	83 c4 20             	add    $0x20,%esp
    335b:	c9                   	leave  
    335c:	c3                   	ret    

0000335d <ParseShllInstr>:
    335d:	55                   	push   %ebp
    335e:	89 e5                	mov    %esp,%ebp
    3360:	83 ec 08             	sub    $0x8,%esp
    3363:	83 ec 08             	sub    $0x8,%esp
    3366:	6a 04                	push   $0x4
    3368:	ff 75 08             	pushl  0x8(%ebp)
    336b:	e8 fc ff ff ff       	call   336c <ParseShllInstr+0xf>
    3370:	83 c4 10             	add    $0x10,%esp
    3373:	c9                   	leave  
    3374:	c3                   	ret    

00003375 <ParseSarlInstr>:
    3375:	55                   	push   %ebp
    3376:	89 e5                	mov    %esp,%ebp
    3378:	83 ec 08             	sub    $0x8,%esp
    337b:	83 ec 08             	sub    $0x8,%esp
    337e:	6a 07                	push   $0x7
    3380:	ff 75 08             	pushl  0x8(%ebp)
    3383:	e8 fc ff ff ff       	call   3384 <ParseSarlInstr+0xf>
    3388:	83 c4 10             	add    $0x10,%esp
    338b:	c9                   	leave  
    338c:	c3                   	ret    

0000338d <ParseShrlInstr>:
    338d:	55                   	push   %ebp
    338e:	89 e5                	mov    %esp,%ebp
    3390:	83 ec 08             	sub    $0x8,%esp
    3393:	83 ec 08             	sub    $0x8,%esp
    3396:	6a 05                	push   $0x5
    3398:	ff 75 08             	pushl  0x8(%ebp)
    339b:	e8 fc ff ff ff       	call   339c <ParseShrlInstr+0xf>
    33a0:	83 c4 10             	add    $0x10,%esp
    33a3:	c9                   	leave  
    33a4:	c3                   	ret    

000033a5 <ParseImullInstr>:
    33a5:	55                   	push   %ebp
    33a6:	89 e5                	mov    %esp,%ebp
    33a8:	83 ec 58             	sub    $0x58,%esp
    33ab:	c7 45 e8 ff ff ff ff 	movl   $0xffffffff,-0x18(%ebp)
    33b2:	c6 45 b6 ff          	movb   $0xff,-0x4a(%ebp)
    33b6:	c6 45 b7 ff          	movb   $0xff,-0x49(%ebp)
    33ba:	c7 45 e4 00 00 00 00 	movl   $0x0,-0x1c(%ebp)
    33c1:	c7 45 f4 00 00 00 00 	movl   $0x0,-0xc(%ebp)
    33c8:	c7 45 f0 00 00 00 00 	movl   $0x0,-0x10(%ebp)
    33cf:	c7 45 ac 00 00 00 00 	movl   $0x0,-0x54(%ebp)
    33d6:	c7 45 b0 00 00 00 00 	movl   $0x0,-0x50(%ebp)
    33dd:	e8 fc ff ff ff       	call   33de <ParseImullInstr+0x39>
    33e2:	89 45 e0             	mov    %eax,-0x20(%ebp)
    33e5:	c7 45 ec 00 00 00 00 	movl   $0x0,-0x14(%ebp)
    33ec:	e8 fc ff ff ff       	call   33ed <ParseImullInstr+0x48>
    33f1:	88 45 df             	mov    %al,-0x21(%ebp)
    33f4:	80 7d df 2c          	cmpb   $0x2c,-0x21(%ebp)
    33f8:	75 0d                	jne    3407 <ParseImullInstr+0x62>
    33fa:	e8 fc ff ff ff       	call   33fb <ParseImullInstr+0x56>
    33ff:	e8 fc ff ff ff       	call   3400 <ParseImullInstr+0x5b>
    3404:	89 45 ec             	mov    %eax,-0x14(%ebp)
    3407:	83 ec 0c             	sub    $0xc,%esp
    340a:	6a 04                	push   $0x4
    340c:	e8 fc ff ff ff       	call   340d <ParseImullInstr+0x68>
    3411:	83 c4 10             	add    $0x10,%esp
    3414:	89 45 e4             	mov    %eax,-0x1c(%ebp)
    3417:	83 7d ec 00          	cmpl   $0x0,-0x14(%ebp)
    341b:	0f 85 d7 00 00 00    	jne    34f8 <ParseImullInstr+0x153>
    3421:	8b 45 e0             	mov    -0x20(%ebp),%eax
    3424:	8b 40 08             	mov    0x8(%eax),%eax
    3427:	89 45 d8             	mov    %eax,-0x28(%ebp)
    342a:	c6 45 b6 f7          	movb   $0xf7,-0x4a(%ebp)
    342e:	8b 45 e4             	mov    -0x1c(%ebp),%eax
    3431:	0f b6 10             	movzbl (%eax),%edx
    3434:	83 e2 c7             	and    $0xffffffc7,%edx
    3437:	83 ca 28             	or     $0x28,%edx
    343a:	88 10                	mov    %dl,(%eax)
    343c:	83 7d d8 04          	cmpl   $0x4,-0x28(%ebp)
    3440:	75 49                	jne    348b <ParseImullInstr+0xe6>
    3442:	8b 45 ec             	mov    -0x14(%ebp),%eax
    3445:	8b 00                	mov    (%eax),%eax
    3447:	89 45 d4             	mov    %eax,-0x2c(%ebp)
    344a:	8b 45 d4             	mov    -0x2c(%ebp),%eax
    344d:	0f b6 40 01          	movzbl 0x1(%eax),%eax
    3451:	88 45 d3             	mov    %al,-0x2d(%ebp)
    3454:	80 7d d3 20          	cmpb   $0x20,-0x2d(%ebp)
    3458:	0f 85 31 01 00 00    	jne    358f <ParseImullInstr+0x1ea>
    345e:	8b 45 e4             	mov    -0x1c(%ebp),%eax
    3461:	0f b6 10             	movzbl (%eax),%edx
    3464:	83 ca c0             	or     $0xffffffc0,%edx
    3467:	88 10                	mov    %dl,(%eax)
    3469:	8b 45 d4             	mov    -0x2c(%ebp),%eax
    346c:	0f b6 00             	movzbl (%eax),%eax
    346f:	83 e0 07             	and    $0x7,%eax
    3472:	89 c2                	mov    %eax,%edx
    3474:	8b 45 e4             	mov    -0x1c(%ebp),%eax
    3477:	89 d1                	mov    %edx,%ecx
    3479:	83 e1 07             	and    $0x7,%ecx
    347c:	0f b6 10             	movzbl (%eax),%edx
    347f:	83 e2 f8             	and    $0xfffffff8,%edx
    3482:	09 ca                	or     %ecx,%edx
    3484:	88 10                	mov    %dl,(%eax)
    3486:	e9 04 01 00 00       	jmp    358f <ParseImullInstr+0x1ea>
    348b:	83 ec 0c             	sub    $0xc,%esp
    348e:	ff 75 ec             	pushl  -0x14(%ebp)
    3491:	e8 fc ff ff ff       	call   3492 <ParseImullInstr+0xed>
    3496:	83 c4 10             	add    $0x10,%esp
    3499:	89 45 cc             	mov    %eax,-0x34(%ebp)
    349c:	8b 45 cc             	mov    -0x34(%ebp),%eax
    349f:	8b 40 08             	mov    0x8(%eax),%eax
    34a2:	83 e0 03             	and    $0x3,%eax
    34a5:	8b 55 e4             	mov    -0x1c(%ebp),%edx
    34a8:	c1 e0 06             	shl    $0x6,%eax
    34ab:	89 c1                	mov    %eax,%ecx
    34ad:	0f b6 02             	movzbl (%edx),%eax
    34b0:	83 e0 3f             	and    $0x3f,%eax
    34b3:	09 c8                	or     %ecx,%eax
    34b5:	88 02                	mov    %al,(%edx)
    34b7:	8b 45 cc             	mov    -0x34(%ebp),%eax
    34ba:	8b 40 0c             	mov    0xc(%eax),%eax
    34bd:	83 e0 07             	and    $0x7,%eax
    34c0:	8b 55 e4             	mov    -0x1c(%ebp),%edx
    34c3:	83 e0 07             	and    $0x7,%eax
    34c6:	89 c1                	mov    %eax,%ecx
    34c8:	0f b6 02             	movzbl (%edx),%eax
    34cb:	83 e0 f8             	and    $0xfffffff8,%eax
    34ce:	09 c8                	or     %ecx,%eax
    34d0:	88 02                	mov    %al,(%edx)
    34d2:	83 ec 0c             	sub    $0xc,%esp
    34d5:	6a 0c                	push   $0xc
    34d7:	e8 fc ff ff ff       	call   34d8 <ParseImullInstr+0x133>
    34dc:	83 c4 10             	add    $0x10,%esp
    34df:	89 45 f0             	mov    %eax,-0x10(%ebp)
    34e2:	8b 45 cc             	mov    -0x34(%ebp),%eax
    34e5:	8b 00                	mov    (%eax),%eax
    34e7:	89 45 f0             	mov    %eax,-0x10(%ebp)
    34ea:	8b 45 cc             	mov    -0x34(%ebp),%eax
    34ed:	8b 40 04             	mov    0x4(%eax),%eax
    34f0:	89 45 f4             	mov    %eax,-0xc(%ebp)
    34f3:	e9 97 00 00 00       	jmp    358f <ParseImullInstr+0x1ea>
    34f8:	c6 45 b6 0f          	movb   $0xf,-0x4a(%ebp)
    34fc:	c6 45 b7 af          	movb   $0xaf,-0x49(%ebp)
    3500:	8b 45 e0             	mov    -0x20(%ebp),%eax
    3503:	8b 40 08             	mov    0x8(%eax),%eax
    3506:	89 45 c8             	mov    %eax,-0x38(%ebp)
    3509:	8b 45 ec             	mov    -0x14(%ebp),%eax
    350c:	8b 40 08             	mov    0x8(%eax),%eax
    350f:	89 45 c4             	mov    %eax,-0x3c(%ebp)
    3512:	8b 45 e4             	mov    -0x1c(%ebp),%eax
    3515:	0f b6 10             	movzbl (%eax),%edx
    3518:	83 ca c0             	or     $0xffffffc0,%edx
    351b:	88 10                	mov    %dl,(%eax)
    351d:	8b 45 ec             	mov    -0x14(%ebp),%eax
    3520:	8b 00                	mov    (%eax),%eax
    3522:	89 45 c0             	mov    %eax,-0x40(%ebp)
    3525:	8b 45 c0             	mov    -0x40(%ebp),%eax
    3528:	0f b6 00             	movzbl (%eax),%eax
    352b:	83 e0 07             	and    $0x7,%eax
    352e:	89 c2                	mov    %eax,%edx
    3530:	8b 45 e4             	mov    -0x1c(%ebp),%eax
    3533:	83 e2 07             	and    $0x7,%edx
    3536:	8d 0c d5 00 00 00 00 	lea    0x0(,%edx,8),%ecx
    353d:	0f b6 10             	movzbl (%eax),%edx
    3540:	83 e2 c7             	and    $0xffffffc7,%edx
    3543:	09 ca                	or     %ecx,%edx
    3545:	88 10                	mov    %dl,(%eax)
    3547:	8b 45 c0             	mov    -0x40(%ebp),%eax
    354a:	0f b6 00             	movzbl (%eax),%eax
    354d:	83 e0 07             	and    $0x7,%eax
    3550:	89 c2                	mov    %eax,%edx
    3552:	8b 45 e4             	mov    -0x1c(%ebp),%eax
    3555:	89 d1                	mov    %edx,%ecx
    3557:	83 e1 07             	and    $0x7,%ecx
    355a:	0f b6 10             	movzbl (%eax),%edx
    355d:	83 e2 f8             	and    $0xfffffff8,%edx
    3560:	09 ca                	or     %ecx,%edx
    3562:	88 10                	mov    %dl,(%eax)
    3564:	8b 45 e0             	mov    -0x20(%ebp),%eax
    3567:	8b 00                	mov    (%eax),%eax
    3569:	89 45 ac             	mov    %eax,-0x54(%ebp)
    356c:	8b 45 ac             	mov    -0x54(%ebp),%eax
    356f:	83 ec 0c             	sub    $0xc,%esp
    3572:	50                   	push   %eax
    3573:	e8 fc ff ff ff       	call   3574 <ParseImullInstr+0x1cf>
    3578:	83 c4 10             	add    $0x10,%esp
    357b:	83 f8 01             	cmp    $0x1,%eax
    357e:	74 07                	je     3587 <ParseImullInstr+0x1e2>
    3580:	b8 03 00 00 00       	mov    $0x3,%eax
    3585:	eb 05                	jmp    358c <ParseImullInstr+0x1e7>
    3587:	b8 01 00 00 00       	mov    $0x1,%eax
    358c:	89 45 b0             	mov    %eax,-0x50(%ebp)
    358f:	83 ec 04             	sub    $0x4,%esp
    3592:	ff 75 b0             	pushl  -0x50(%ebp)
    3595:	ff 75 ac             	pushl  -0x54(%ebp)
    3598:	ff 75 f0             	pushl  -0x10(%ebp)
    359b:	ff 75 f4             	pushl  -0xc(%ebp)
    359e:	ff 75 e4             	pushl  -0x1c(%ebp)
    35a1:	0f b7 45 b6          	movzwl -0x4a(%ebp),%eax
    35a5:	50                   	push   %eax
    35a6:	ff 75 e8             	pushl  -0x18(%ebp)
    35a9:	e8 fc ff ff ff       	call   35aa <ParseImullInstr+0x205>
    35ae:	83 c4 20             	add    $0x20,%esp
    35b1:	89 45 bc             	mov    %eax,-0x44(%ebp)
    35b4:	c7 45 b8 00 00 00 00 	movl   $0x0,-0x48(%ebp)
    35bb:	8b 45 b8             	mov    -0x48(%ebp),%eax
    35be:	8d 50 01             	lea    0x1(%eax),%edx
    35c1:	89 55 b8             	mov    %edx,-0x48(%ebp)
    35c4:	8b 55 bc             	mov    -0x44(%ebp),%edx
    35c7:	8d 48 08             	lea    0x8(%eax),%ecx
    35ca:	8b 45 e0             	mov    -0x20(%ebp),%eax
    35cd:	89 44 8a 04          	mov    %eax,0x4(%edx,%ecx,4)
    35d1:	8b 45 b8             	mov    -0x48(%ebp),%eax
    35d4:	8d 50 01             	lea    0x1(%eax),%edx
    35d7:	89 55 b8             	mov    %edx,-0x48(%ebp)
    35da:	8b 55 bc             	mov    -0x44(%ebp),%edx
    35dd:	8d 48 08             	lea    0x8(%eax),%ecx
    35e0:	8b 45 ec             	mov    -0x14(%ebp),%eax
    35e3:	89 44 8a 04          	mov    %eax,0x4(%edx,%ecx,4)
    35e7:	8b 45 bc             	mov    -0x44(%ebp),%eax
    35ea:	c9                   	leave  
    35eb:	c3                   	ret    

000035ec <GenerateMovInstr>:
    35ec:	55                   	push   %ebp
    35ed:	89 e5                	mov    %esp,%ebp
    35ef:	81 ec 88 00 00 00    	sub    $0x88,%esp
    35f5:	c7 45 f4 00 00 00 00 	movl   $0x0,-0xc(%ebp)
    35fc:	c6 45 8e ff          	movb   $0xff,-0x72(%ebp)
    3600:	c6 45 8f ff          	movb   $0xff,-0x71(%ebp)
    3604:	c7 45 f0 00 00 00 00 	movl   $0x0,-0x10(%ebp)
    360b:	c7 45 ec 00 00 00 00 	movl   $0x0,-0x14(%ebp)
    3612:	c7 45 e8 00 00 00 00 	movl   $0x0,-0x18(%ebp)
    3619:	c7 45 84 00 00 00 00 	movl   $0x0,-0x7c(%ebp)
    3620:	c7 45 88 00 00 00 00 	movl   $0x0,-0x78(%ebp)
    3627:	e8 fc ff ff ff       	call   3628 <GenerateMovInstr+0x3c>
    362c:	89 45 e4             	mov    %eax,-0x1c(%ebp)
    362f:	e8 fc ff ff ff       	call   3630 <GenerateMovInstr+0x44>
    3634:	e8 fc ff ff ff       	call   3635 <GenerateMovInstr+0x49>
    3639:	89 45 e0             	mov    %eax,-0x20(%ebp)
    363c:	8b 45 e4             	mov    -0x1c(%ebp),%eax
    363f:	8b 40 08             	mov    0x8(%eax),%eax
    3642:	89 45 dc             	mov    %eax,-0x24(%ebp)
    3645:	8b 45 e0             	mov    -0x20(%ebp),%eax
    3648:	8b 40 08             	mov    0x8(%eax),%eax
    364b:	89 45 d8             	mov    %eax,-0x28(%ebp)
    364e:	83 ec 0c             	sub    $0xc,%esp
    3651:	6a 04                	push   $0x4
    3653:	e8 fc ff ff ff       	call   3654 <GenerateMovInstr+0x68>
    3658:	83 c4 10             	add    $0x10,%esp
    365b:	89 45 f0             	mov    %eax,-0x10(%ebp)
    365e:	83 7d dc 04          	cmpl   $0x4,-0x24(%ebp)
    3662:	0f 85 3e 01 00 00    	jne    37a6 <GenerateMovInstr+0x1ba>
    3668:	83 ec 0c             	sub    $0xc,%esp
    366b:	ff 75 d8             	pushl  -0x28(%ebp)
    366e:	e8 fc ff ff ff       	call   366f <GenerateMovInstr+0x83>
    3673:	83 c4 10             	add    $0x10,%esp
    3676:	3c 01                	cmp    $0x1,%al
    3678:	0f 85 28 01 00 00    	jne    37a6 <GenerateMovInstr+0x1ba>
    367e:	8b 45 e4             	mov    -0x1c(%ebp),%eax
    3681:	8b 00                	mov    (%eax),%eax
    3683:	89 45 d4             	mov    %eax,-0x2c(%ebp)
    3686:	8b 45 d4             	mov    -0x2c(%ebp),%eax
    3689:	0f b6 40 01          	movzbl 0x1(%eax),%eax
    368d:	0f b6 c0             	movzbl %al,%eax
    3690:	89 45 d0             	mov    %eax,-0x30(%ebp)
    3693:	83 7d d0 08          	cmpl   $0x8,-0x30(%ebp)
    3697:	75 06                	jne    369f <GenerateMovInstr+0xb3>
    3699:	c6 45 8e 88          	movb   $0x88,-0x72(%ebp)
    369d:	eb 1d                	jmp    36bc <GenerateMovInstr+0xd0>
    369f:	83 7d d0 10          	cmpl   $0x10,-0x30(%ebp)
    36a3:	75 0d                	jne    36b2 <GenerateMovInstr+0xc6>
    36a5:	c7 45 f4 66 00 00 00 	movl   $0x66,-0xc(%ebp)
    36ac:	c6 45 8e 89          	movb   $0x89,-0x72(%ebp)
    36b0:	eb 0a                	jmp    36bc <GenerateMovInstr+0xd0>
    36b2:	83 7d d0 20          	cmpl   $0x20,-0x30(%ebp)
    36b6:	75 04                	jne    36bc <GenerateMovInstr+0xd0>
    36b8:	c6 45 8e 89          	movb   $0x89,-0x72(%ebp)
    36bc:	83 ec 0c             	sub    $0xc,%esp
    36bf:	ff 75 e0             	pushl  -0x20(%ebp)
    36c2:	e8 fc ff ff ff       	call   36c3 <GenerateMovInstr+0xd7>
    36c7:	83 c4 10             	add    $0x10,%esp
    36ca:	89 45 cc             	mov    %eax,-0x34(%ebp)
    36cd:	8b 45 cc             	mov    -0x34(%ebp),%eax
    36d0:	8b 40 04             	mov    0x4(%eax),%eax
    36d3:	89 45 ec             	mov    %eax,-0x14(%ebp)
    36d6:	8b 45 cc             	mov    -0x34(%ebp),%eax
    36d9:	8b 40 08             	mov    0x8(%eax),%eax
    36dc:	83 e0 03             	and    $0x3,%eax
    36df:	8b 55 f0             	mov    -0x10(%ebp),%edx
    36e2:	c1 e0 06             	shl    $0x6,%eax
    36e5:	89 c1                	mov    %eax,%ecx
    36e7:	0f b6 02             	movzbl (%edx),%eax
    36ea:	83 e0 3f             	and    $0x3f,%eax
    36ed:	09 c8                	or     %ecx,%eax
    36ef:	88 02                	mov    %al,(%edx)
    36f1:	8b 45 cc             	mov    -0x34(%ebp),%eax
    36f4:	8b 40 0c             	mov    0xc(%eax),%eax
    36f7:	83 e0 07             	and    $0x7,%eax
    36fa:	8b 55 f0             	mov    -0x10(%ebp),%edx
    36fd:	83 e0 07             	and    $0x7,%eax
    3700:	89 c1                	mov    %eax,%ecx
    3702:	0f b6 02             	movzbl (%edx),%eax
    3705:	83 e0 f8             	and    $0xfffffff8,%eax
    3708:	09 c8                	or     %ecx,%eax
    370a:	88 02                	mov    %al,(%edx)
    370c:	8b 45 d4             	mov    -0x2c(%ebp),%eax
    370f:	0f b6 00             	movzbl (%eax),%eax
    3712:	83 e0 07             	and    $0x7,%eax
    3715:	89 c2                	mov    %eax,%edx
    3717:	8b 45 f0             	mov    -0x10(%ebp),%eax
    371a:	83 e2 07             	and    $0x7,%edx
    371d:	8d 0c d5 00 00 00 00 	lea    0x0(,%edx,8),%ecx
    3724:	0f b6 10             	movzbl (%eax),%edx
    3727:	83 e2 c7             	and    $0xffffffc7,%edx
    372a:	09 ca                	or     %ecx,%edx
    372c:	88 10                	mov    %dl,(%eax)
    372e:	83 ec 0c             	sub    $0xc,%esp
    3731:	6a 0c                	push   $0xc
    3733:	e8 fc ff ff ff       	call   3734 <GenerateMovInstr+0x148>
    3738:	83 c4 10             	add    $0x10,%esp
    373b:	89 45 e8             	mov    %eax,-0x18(%ebp)
    373e:	8b 45 cc             	mov    -0x34(%ebp),%eax
    3741:	8b 00                	mov    (%eax),%eax
    3743:	89 45 e8             	mov    %eax,-0x18(%ebp)
    3746:	83 ec 04             	sub    $0x4,%esp
    3749:	ff 75 88             	pushl  -0x78(%ebp)
    374c:	ff 75 84             	pushl  -0x7c(%ebp)
    374f:	ff 75 e8             	pushl  -0x18(%ebp)
    3752:	ff 75 ec             	pushl  -0x14(%ebp)
    3755:	ff 75 f0             	pushl  -0x10(%ebp)
    3758:	0f b7 45 8e          	movzwl -0x72(%ebp),%eax
    375c:	50                   	push   %eax
    375d:	ff 75 f4             	pushl  -0xc(%ebp)
    3760:	e8 fc ff ff ff       	call   3761 <GenerateMovInstr+0x175>
    3765:	83 c4 20             	add    $0x20,%esp
    3768:	89 45 c8             	mov    %eax,-0x38(%ebp)
    376b:	c7 45 c4 00 00 00 00 	movl   $0x0,-0x3c(%ebp)
    3772:	8b 45 c4             	mov    -0x3c(%ebp),%eax
    3775:	8d 50 01             	lea    0x1(%eax),%edx
    3778:	89 55 c4             	mov    %edx,-0x3c(%ebp)
    377b:	8b 55 c8             	mov    -0x38(%ebp),%edx
    377e:	8d 48 08             	lea    0x8(%eax),%ecx
    3781:	8b 45 e4             	mov    -0x1c(%ebp),%eax
    3784:	89 44 8a 04          	mov    %eax,0x4(%edx,%ecx,4)
    3788:	8b 45 c4             	mov    -0x3c(%ebp),%eax
    378b:	8d 50 01             	lea    0x1(%eax),%edx
    378e:	89 55 c4             	mov    %edx,-0x3c(%ebp)
    3791:	8b 55 c8             	mov    -0x38(%ebp),%edx
    3794:	8d 48 08             	lea    0x8(%eax),%ecx
    3797:	8b 45 e0             	mov    -0x20(%ebp),%eax
    379a:	89 44 8a 04          	mov    %eax,0x4(%edx,%ecx,4)
    379e:	8b 45 c8             	mov    -0x38(%ebp),%eax
    37a1:	e9 48 03 00 00       	jmp    3aee <GenerateMovInstr+0x502>
    37a6:	83 7d d8 04          	cmpl   $0x4,-0x28(%ebp)
    37aa:	0f 85 29 01 00 00    	jne    38d9 <GenerateMovInstr+0x2ed>
    37b0:	83 ec 0c             	sub    $0xc,%esp
    37b3:	ff 75 dc             	pushl  -0x24(%ebp)
    37b6:	e8 fc ff ff ff       	call   37b7 <GenerateMovInstr+0x1cb>
    37bb:	83 c4 10             	add    $0x10,%esp
    37be:	3c 01                	cmp    $0x1,%al
    37c0:	0f 85 13 01 00 00    	jne    38d9 <GenerateMovInstr+0x2ed>
    37c6:	8b 45 e0             	mov    -0x20(%ebp),%eax
    37c9:	8b 00                	mov    (%eax),%eax
    37cb:	89 45 c0             	mov    %eax,-0x40(%ebp)
    37ce:	8b 45 c0             	mov    -0x40(%ebp),%eax
    37d1:	0f b6 40 01          	movzbl 0x1(%eax),%eax
    37d5:	0f b6 c0             	movzbl %al,%eax
    37d8:	89 45 bc             	mov    %eax,-0x44(%ebp)
    37db:	83 7d bc 08          	cmpl   $0x8,-0x44(%ebp)
    37df:	75 06                	jne    37e7 <GenerateMovInstr+0x1fb>
    37e1:	c6 45 8e 8a          	movb   $0x8a,-0x72(%ebp)
    37e5:	eb 1d                	jmp    3804 <GenerateMovInstr+0x218>
    37e7:	83 7d bc 10          	cmpl   $0x10,-0x44(%ebp)
    37eb:	75 0d                	jne    37fa <GenerateMovInstr+0x20e>
    37ed:	c7 45 f4 66 00 00 00 	movl   $0x66,-0xc(%ebp)
    37f4:	c6 45 8e 8b          	movb   $0x8b,-0x72(%ebp)
    37f8:	eb 0a                	jmp    3804 <GenerateMovInstr+0x218>
    37fa:	83 7d bc 20          	cmpl   $0x20,-0x44(%ebp)
    37fe:	75 04                	jne    3804 <GenerateMovInstr+0x218>
    3800:	c6 45 8e 8b          	movb   $0x8b,-0x72(%ebp)
    3804:	83 ec 0c             	sub    $0xc,%esp
    3807:	ff 75 e4             	pushl  -0x1c(%ebp)
    380a:	e8 fc ff ff ff       	call   380b <GenerateMovInstr+0x21f>
    380f:	83 c4 10             	add    $0x10,%esp
    3812:	89 45 b8             	mov    %eax,-0x48(%ebp)
    3815:	8b 45 b8             	mov    -0x48(%ebp),%eax
    3818:	8b 40 04             	mov    0x4(%eax),%eax
    381b:	89 45 ec             	mov    %eax,-0x14(%ebp)
    381e:	8b 45 b8             	mov    -0x48(%ebp),%eax
    3821:	8b 40 08             	mov    0x8(%eax),%eax
    3824:	83 e0 03             	and    $0x3,%eax
    3827:	8b 55 f0             	mov    -0x10(%ebp),%edx
    382a:	c1 e0 06             	shl    $0x6,%eax
    382d:	89 c1                	mov    %eax,%ecx
    382f:	0f b6 02             	movzbl (%edx),%eax
    3832:	83 e0 3f             	and    $0x3f,%eax
    3835:	09 c8                	or     %ecx,%eax
    3837:	88 02                	mov    %al,(%edx)
    3839:	8b 45 b8             	mov    -0x48(%ebp),%eax
    383c:	8b 40 0c             	mov    0xc(%eax),%eax
    383f:	83 e0 07             	and    $0x7,%eax
    3842:	8b 55 f0             	mov    -0x10(%ebp),%edx
    3845:	83 e0 07             	and    $0x7,%eax
    3848:	89 c1                	mov    %eax,%ecx
    384a:	0f b6 02             	movzbl (%edx),%eax
    384d:	83 e0 f8             	and    $0xfffffff8,%eax
    3850:	09 c8                	or     %ecx,%eax
    3852:	88 02                	mov    %al,(%edx)
    3854:	8b 45 c0             	mov    -0x40(%ebp),%eax
    3857:	0f b6 00             	movzbl (%eax),%eax
    385a:	83 e0 07             	and    $0x7,%eax
    385d:	89 c2                	mov    %eax,%edx
    385f:	8b 45 f0             	mov    -0x10(%ebp),%eax
    3862:	83 e2 07             	and    $0x7,%edx
    3865:	8d 0c d5 00 00 00 00 	lea    0x0(,%edx,8),%ecx
    386c:	0f b6 10             	movzbl (%eax),%edx
    386f:	83 e2 c7             	and    $0xffffffc7,%edx
    3872:	09 ca                	or     %ecx,%edx
    3874:	88 10                	mov    %dl,(%eax)
    3876:	8b 45 b8             	mov    -0x48(%ebp),%eax
    3879:	8b 00                	mov    (%eax),%eax
    387b:	83 ec 04             	sub    $0x4,%esp
    387e:	ff 75 88             	pushl  -0x78(%ebp)
    3881:	ff 75 84             	pushl  -0x7c(%ebp)
    3884:	50                   	push   %eax
    3885:	ff 75 ec             	pushl  -0x14(%ebp)
    3888:	ff 75 f0             	pushl  -0x10(%ebp)
    388b:	0f b7 45 8e          	movzwl -0x72(%ebp),%eax
    388f:	50                   	push   %eax
    3890:	ff 75 f4             	pushl  -0xc(%ebp)
    3893:	e8 fc ff ff ff       	call   3894 <GenerateMovInstr+0x2a8>
    3898:	83 c4 20             	add    $0x20,%esp
    389b:	89 45 b4             	mov    %eax,-0x4c(%ebp)
    389e:	c7 45 b0 00 00 00 00 	movl   $0x0,-0x50(%ebp)
    38a5:	8b 45 b0             	mov    -0x50(%ebp),%eax
    38a8:	8d 50 01             	lea    0x1(%eax),%edx
    38ab:	89 55 b0             	mov    %edx,-0x50(%ebp)
    38ae:	8b 55 b4             	mov    -0x4c(%ebp),%edx
    38b1:	8d 48 08             	lea    0x8(%eax),%ecx
    38b4:	8b 45 e4             	mov    -0x1c(%ebp),%eax
    38b7:	89 44 8a 04          	mov    %eax,0x4(%edx,%ecx,4)
    38bb:	8b 45 b0             	mov    -0x50(%ebp),%eax
    38be:	8d 50 01             	lea    0x1(%eax),%edx
    38c1:	89 55 b0             	mov    %edx,-0x50(%ebp)
    38c4:	8b 55 b4             	mov    -0x4c(%ebp),%edx
    38c7:	8d 48 08             	lea    0x8(%eax),%ecx
    38ca:	8b 45 e0             	mov    -0x20(%ebp),%eax
    38cd:	89 44 8a 04          	mov    %eax,0x4(%edx,%ecx,4)
    38d1:	8b 45 b4             	mov    -0x4c(%ebp),%eax
    38d4:	e9 15 02 00 00       	jmp    3aee <GenerateMovInstr+0x502>
    38d9:	83 7d dc 00          	cmpl   $0x0,-0x24(%ebp)
    38dd:	0f 85 e3 00 00 00    	jne    39c6 <GenerateMovInstr+0x3da>
    38e3:	83 7d d8 04          	cmpl   $0x4,-0x28(%ebp)
    38e7:	0f 85 d9 00 00 00    	jne    39c6 <GenerateMovInstr+0x3da>
    38ed:	8b 45 e4             	mov    -0x1c(%ebp),%eax
    38f0:	8b 00                	mov    (%eax),%eax
    38f2:	89 45 84             	mov    %eax,-0x7c(%ebp)
    38f5:	8b 45 e0             	mov    -0x20(%ebp),%eax
    38f8:	8b 00                	mov    (%eax),%eax
    38fa:	89 45 ac             	mov    %eax,-0x54(%ebp)
    38fd:	8b 45 ac             	mov    -0x54(%ebp),%eax
    3900:	0f b6 40 01          	movzbl 0x1(%eax),%eax
    3904:	0f b6 c0             	movzbl %al,%eax
    3907:	89 45 a8             	mov    %eax,-0x58(%ebp)
    390a:	83 7d a8 08          	cmpl   $0x8,-0x58(%ebp)
    390e:	75 15                	jne    3925 <GenerateMovInstr+0x339>
    3910:	c7 45 88 01 00 00 00 	movl   $0x1,-0x78(%ebp)
    3917:	8b 45 ac             	mov    -0x54(%ebp),%eax
    391a:	0f b6 00             	movzbl (%eax),%eax
    391d:	83 e8 50             	sub    $0x50,%eax
    3920:	88 45 8e             	mov    %al,-0x72(%ebp)
    3923:	eb 3b                	jmp    3960 <GenerateMovInstr+0x374>
    3925:	83 7d a8 10          	cmpl   $0x10,-0x58(%ebp)
    3929:	75 1c                	jne    3947 <GenerateMovInstr+0x35b>
    392b:	c7 45 88 02 00 00 00 	movl   $0x2,-0x78(%ebp)
    3932:	c7 45 f4 66 00 00 00 	movl   $0x66,-0xc(%ebp)
    3939:	8b 45 ac             	mov    -0x54(%ebp),%eax
    393c:	0f b6 00             	movzbl (%eax),%eax
    393f:	83 e8 48             	sub    $0x48,%eax
    3942:	88 45 8e             	mov    %al,-0x72(%ebp)
    3945:	eb 19                	jmp    3960 <GenerateMovInstr+0x374>
    3947:	83 7d a8 20          	cmpl   $0x20,-0x58(%ebp)
    394b:	75 13                	jne    3960 <GenerateMovInstr+0x374>
    394d:	c7 45 88 03 00 00 00 	movl   $0x3,-0x78(%ebp)
    3954:	8b 45 ac             	mov    -0x54(%ebp),%eax
    3957:	0f b6 00             	movzbl (%eax),%eax
    395a:	83 e8 48             	sub    $0x48,%eax
    395d:	88 45 8e             	mov    %al,-0x72(%ebp)
    3960:	c7 45 f0 00 00 00 00 	movl   $0x0,-0x10(%ebp)
    3967:	83 ec 04             	sub    $0x4,%esp
    396a:	ff 75 88             	pushl  -0x78(%ebp)
    396d:	ff 75 84             	pushl  -0x7c(%ebp)
    3970:	6a 00                	push   $0x0
    3972:	ff 75 ec             	pushl  -0x14(%ebp)
    3975:	ff 75 f0             	pushl  -0x10(%ebp)
    3978:	0f b7 45 8e          	movzwl -0x72(%ebp),%eax
    397c:	50                   	push   %eax
    397d:	ff 75 f4             	pushl  -0xc(%ebp)
    3980:	e8 fc ff ff ff       	call   3981 <GenerateMovInstr+0x395>
    3985:	83 c4 20             	add    $0x20,%esp
    3988:	89 45 a4             	mov    %eax,-0x5c(%ebp)
    398b:	c7 45 a0 00 00 00 00 	movl   $0x0,-0x60(%ebp)
    3992:	8b 45 a0             	mov    -0x60(%ebp),%eax
    3995:	8d 50 01             	lea    0x1(%eax),%edx
    3998:	89 55 a0             	mov    %edx,-0x60(%ebp)
    399b:	8b 55 a4             	mov    -0x5c(%ebp),%edx
    399e:	8d 48 08             	lea    0x8(%eax),%ecx
    39a1:	8b 45 e4             	mov    -0x1c(%ebp),%eax
    39a4:	89 44 8a 04          	mov    %eax,0x4(%edx,%ecx,4)
    39a8:	8b 45 a0             	mov    -0x60(%ebp),%eax
    39ab:	8d 50 01             	lea    0x1(%eax),%edx
    39ae:	89 55 a0             	mov    %edx,-0x60(%ebp)
    39b1:	8b 55 a4             	mov    -0x5c(%ebp),%edx
    39b4:	8d 48 08             	lea    0x8(%eax),%ecx
    39b7:	8b 45 e0             	mov    -0x20(%ebp),%eax
    39ba:	89 44 8a 04          	mov    %eax,0x4(%edx,%ecx,4)
    39be:	8b 45 a4             	mov    -0x5c(%ebp),%eax
    39c1:	e9 28 01 00 00       	jmp    3aee <GenerateMovInstr+0x502>
    39c6:	83 7d dc 00          	cmpl   $0x0,-0x24(%ebp)
    39ca:	0f 85 1e 01 00 00    	jne    3aee <GenerateMovInstr+0x502>
    39d0:	83 ec 0c             	sub    $0xc,%esp
    39d3:	ff 75 d8             	pushl  -0x28(%ebp)
    39d6:	e8 fc ff ff ff       	call   39d7 <GenerateMovInstr+0x3eb>
    39db:	83 c4 10             	add    $0x10,%esp
    39de:	3c 01                	cmp    $0x1,%al
    39e0:	0f 85 08 01 00 00    	jne    3aee <GenerateMovInstr+0x502>
    39e6:	8b 45 e4             	mov    -0x1c(%ebp),%eax
    39e9:	8b 00                	mov    (%eax),%eax
    39eb:	89 45 84             	mov    %eax,-0x7c(%ebp)
    39ee:	8b 45 84             	mov    -0x7c(%ebp),%eax
    39f1:	83 ec 0c             	sub    $0xc,%esp
    39f4:	50                   	push   %eax
    39f5:	e8 fc ff ff ff       	call   39f6 <GenerateMovInstr+0x40a>
    39fa:	83 c4 10             	add    $0x10,%esp
    39fd:	89 45 9c             	mov    %eax,-0x64(%ebp)
    3a00:	83 7d 9c 08          	cmpl   $0x8,-0x64(%ebp)
    3a04:	75 0d                	jne    3a13 <GenerateMovInstr+0x427>
    3a06:	c7 45 88 01 00 00 00 	movl   $0x1,-0x78(%ebp)
    3a0d:	c6 45 8e c6          	movb   $0xc6,-0x72(%ebp)
    3a11:	eb 2b                	jmp    3a3e <GenerateMovInstr+0x452>
    3a13:	83 7d 9c 10          	cmpl   $0x10,-0x64(%ebp)
    3a17:	75 14                	jne    3a2d <GenerateMovInstr+0x441>
    3a19:	c7 45 88 02 00 00 00 	movl   $0x2,-0x78(%ebp)
    3a20:	c7 45 f4 66 00 00 00 	movl   $0x66,-0xc(%ebp)
    3a27:	c6 45 8e c7          	movb   $0xc7,-0x72(%ebp)
    3a2b:	eb 11                	jmp    3a3e <GenerateMovInstr+0x452>
    3a2d:	83 7d 9c 20          	cmpl   $0x20,-0x64(%ebp)
    3a31:	75 0b                	jne    3a3e <GenerateMovInstr+0x452>
    3a33:	c7 45 88 03 00 00 00 	movl   $0x3,-0x78(%ebp)
    3a3a:	c6 45 8e c7          	movb   $0xc7,-0x72(%ebp)
    3a3e:	83 ec 0c             	sub    $0xc,%esp
    3a41:	ff 75 e0             	pushl  -0x20(%ebp)
    3a44:	e8 fc ff ff ff       	call   3a45 <GenerateMovInstr+0x459>
    3a49:	83 c4 10             	add    $0x10,%esp
    3a4c:	89 45 98             	mov    %eax,-0x68(%ebp)
    3a4f:	8b 45 98             	mov    -0x68(%ebp),%eax
    3a52:	8b 40 04             	mov    0x4(%eax),%eax
    3a55:	89 45 ec             	mov    %eax,-0x14(%ebp)
    3a58:	8b 45 98             	mov    -0x68(%ebp),%eax
    3a5b:	8b 40 08             	mov    0x8(%eax),%eax
    3a5e:	83 e0 03             	and    $0x3,%eax
    3a61:	8b 55 f0             	mov    -0x10(%ebp),%edx
    3a64:	c1 e0 06             	shl    $0x6,%eax
    3a67:	89 c1                	mov    %eax,%ecx
    3a69:	0f b6 02             	movzbl (%edx),%eax
    3a6c:	83 e0 3f             	and    $0x3f,%eax
    3a6f:	09 c8                	or     %ecx,%eax
    3a71:	88 02                	mov    %al,(%edx)
    3a73:	8b 45 98             	mov    -0x68(%ebp),%eax
    3a76:	8b 40 0c             	mov    0xc(%eax),%eax
    3a79:	83 e0 07             	and    $0x7,%eax
    3a7c:	8b 55 f0             	mov    -0x10(%ebp),%edx
    3a7f:	83 e0 07             	and    $0x7,%eax
    3a82:	89 c1                	mov    %eax,%ecx
    3a84:	0f b6 02             	movzbl (%edx),%eax
    3a87:	83 e0 f8             	and    $0xfffffff8,%eax
    3a8a:	09 c8                	or     %ecx,%eax
    3a8c:	88 02                	mov    %al,(%edx)
    3a8e:	8b 45 98             	mov    -0x68(%ebp),%eax
    3a91:	8b 00                	mov    (%eax),%eax
    3a93:	83 ec 04             	sub    $0x4,%esp
    3a96:	ff 75 88             	pushl  -0x78(%ebp)
    3a99:	ff 75 84             	pushl  -0x7c(%ebp)
    3a9c:	50                   	push   %eax
    3a9d:	ff 75 ec             	pushl  -0x14(%ebp)
    3aa0:	ff 75 f0             	pushl  -0x10(%ebp)
    3aa3:	0f b7 45 8e          	movzwl -0x72(%ebp),%eax
    3aa7:	50                   	push   %eax
    3aa8:	ff 75 f4             	pushl  -0xc(%ebp)
    3aab:	e8 fc ff ff ff       	call   3aac <GenerateMovInstr+0x4c0>
    3ab0:	83 c4 20             	add    $0x20,%esp
    3ab3:	89 45 94             	mov    %eax,-0x6c(%ebp)
    3ab6:	c7 45 90 00 00 00 00 	movl   $0x0,-0x70(%ebp)
    3abd:	8b 45 90             	mov    -0x70(%ebp),%eax
    3ac0:	8d 50 01             	lea    0x1(%eax),%edx
    3ac3:	89 55 90             	mov    %edx,-0x70(%ebp)
    3ac6:	8b 55 94             	mov    -0x6c(%ebp),%edx
    3ac9:	8d 48 08             	lea    0x8(%eax),%ecx
    3acc:	8b 45 e4             	mov    -0x1c(%ebp),%eax
    3acf:	89 44 8a 04          	mov    %eax,0x4(%edx,%ecx,4)
    3ad3:	8b 45 90             	mov    -0x70(%ebp),%eax
    3ad6:	8d 50 01             	lea    0x1(%eax),%edx
    3ad9:	89 55 90             	mov    %edx,-0x70(%ebp)
    3adc:	8b 55 94             	mov    -0x6c(%ebp),%edx
    3adf:	8d 48 08             	lea    0x8(%eax),%ecx
    3ae2:	8b 45 e0             	mov    -0x20(%ebp),%eax
    3ae5:	89 44 8a 04          	mov    %eax,0x4(%edx,%ecx,4)
    3ae9:	8b 45 94             	mov    -0x6c(%ebp),%eax
    3aec:	eb 00                	jmp    3aee <GenerateMovInstr+0x502>
    3aee:	c9                   	leave  
    3aef:	c3                   	ret    

00003af0 <ParseMovlInstr>:
    3af0:	55                   	push   %ebp
    3af1:	89 e5                	mov    %esp,%ebp
    3af3:	83 ec 08             	sub    $0x8,%esp
    3af6:	83 ec 0c             	sub    $0xc,%esp
    3af9:	ff 75 08             	pushl  0x8(%ebp)
    3afc:	e8 fc ff ff ff       	call   3afd <ParseMovlInstr+0xd>
    3b01:	83 c4 10             	add    $0x10,%esp
    3b04:	c9                   	leave  
    3b05:	c3                   	ret    

00003b06 <ParseMovbInstr>:
    3b06:	55                   	push   %ebp
    3b07:	89 e5                	mov    %esp,%ebp
    3b09:	83 ec 08             	sub    $0x8,%esp
    3b0c:	83 ec 0c             	sub    $0xc,%esp
    3b0f:	ff 75 08             	pushl  0x8(%ebp)
    3b12:	e8 fc ff ff ff       	call   3b13 <ParseMovbInstr+0xd>
    3b17:	83 c4 10             	add    $0x10,%esp
    3b1a:	c9                   	leave  
    3b1b:	c3                   	ret    

00003b1c <ParseMovwInstr>:
    3b1c:	55                   	push   %ebp
    3b1d:	89 e5                	mov    %esp,%ebp
    3b1f:	83 ec 08             	sub    $0x8,%esp
    3b22:	83 ec 0c             	sub    $0xc,%esp
    3b25:	ff 75 08             	pushl  0x8(%ebp)
    3b28:	e8 fc ff ff ff       	call   3b29 <ParseMovwInstr+0xd>
    3b2d:	83 c4 10             	add    $0x10,%esp
    3b30:	c9                   	leave  
    3b31:	c3                   	ret    

00003b32 <ParseCmplInstr>:
    3b32:	55                   	push   %ebp
    3b33:	89 e5                	mov    %esp,%ebp
    3b35:	83 ec 28             	sub    $0x28,%esp
    3b38:	c7 45 e4 3d 00 00 00 	movl   $0x3d,-0x1c(%ebp)
    3b3f:	c7 45 e8 83 00 00 00 	movl   $0x83,-0x18(%ebp)
    3b46:	c7 45 ec 81 00 00 00 	movl   $0x81,-0x14(%ebp)
    3b4d:	c7 45 f0 39 00 00 00 	movl   $0x39,-0x10(%ebp)
    3b54:	c7 45 f4 3b 00 00 00 	movl   $0x3b,-0xc(%ebp)
    3b5b:	83 ec 04             	sub    $0x4,%esp
    3b5e:	6a 07                	push   $0x7
    3b60:	ff 75 f4             	pushl  -0xc(%ebp)
    3b63:	ff 75 f0             	pushl  -0x10(%ebp)
    3b66:	ff 75 ec             	pushl  -0x14(%ebp)
    3b69:	ff 75 e8             	pushl  -0x18(%ebp)
    3b6c:	ff 75 e4             	pushl  -0x1c(%ebp)
    3b6f:	ff 75 08             	pushl  0x8(%ebp)
    3b72:	e8 fc ff ff ff       	call   3b73 <ParseCmplInstr+0x41>
    3b77:	83 c4 20             	add    $0x20,%esp
    3b7a:	c9                   	leave  
    3b7b:	c3                   	ret    

00003b7c <ParseAddlInstr>:
    3b7c:	55                   	push   %ebp
    3b7d:	89 e5                	mov    %esp,%ebp
    3b7f:	83 ec 28             	sub    $0x28,%esp
    3b82:	c7 45 e4 05 00 00 00 	movl   $0x5,-0x1c(%ebp)
    3b89:	c7 45 e8 83 00 00 00 	movl   $0x83,-0x18(%ebp)
    3b90:	c7 45 ec 81 00 00 00 	movl   $0x81,-0x14(%ebp)
    3b97:	c7 45 f0 01 00 00 00 	movl   $0x1,-0x10(%ebp)
    3b9e:	c7 45 f4 03 00 00 00 	movl   $0x3,-0xc(%ebp)
    3ba5:	83 ec 04             	sub    $0x4,%esp
    3ba8:	6a 00                	push   $0x0
    3baa:	ff 75 f4             	pushl  -0xc(%ebp)
    3bad:	ff 75 f0             	pushl  -0x10(%ebp)
    3bb0:	ff 75 ec             	pushl  -0x14(%ebp)
    3bb3:	ff 75 e8             	pushl  -0x18(%ebp)
    3bb6:	ff 75 e4             	pushl  -0x1c(%ebp)
    3bb9:	ff 75 08             	pushl  0x8(%ebp)
    3bbc:	e8 fc ff ff ff       	call   3bbd <ParseAddlInstr+0x41>
    3bc1:	83 c4 20             	add    $0x20,%esp
    3bc4:	c9                   	leave  
    3bc5:	c3                   	ret    

00003bc6 <ParseSublInstr>:
    3bc6:	55                   	push   %ebp
    3bc7:	89 e5                	mov    %esp,%ebp
    3bc9:	83 ec 28             	sub    $0x28,%esp
    3bcc:	c7 45 e4 2d 00 00 00 	movl   $0x2d,-0x1c(%ebp)
    3bd3:	c7 45 e8 81 00 00 00 	movl   $0x81,-0x18(%ebp)
    3bda:	c7 45 ec 83 00 00 00 	movl   $0x83,-0x14(%ebp)
    3be1:	c7 45 f0 29 00 00 00 	movl   $0x29,-0x10(%ebp)
    3be8:	c7 45 f4 2b 00 00 00 	movl   $0x2b,-0xc(%ebp)
    3bef:	83 ec 04             	sub    $0x4,%esp
    3bf2:	6a 05                	push   $0x5
    3bf4:	ff 75 f4             	pushl  -0xc(%ebp)
    3bf7:	ff 75 f0             	pushl  -0x10(%ebp)
    3bfa:	ff 75 ec             	pushl  -0x14(%ebp)
    3bfd:	ff 75 e8             	pushl  -0x18(%ebp)
    3c00:	ff 75 e4             	pushl  -0x1c(%ebp)
    3c03:	ff 75 08             	pushl  0x8(%ebp)
    3c06:	e8 fc ff ff ff       	call   3c07 <ParseSublInstr+0x41>
    3c0b:	83 c4 20             	add    $0x20,%esp
    3c0e:	c9                   	leave  
    3c0f:	c3                   	ret    

00003c10 <ParseTestInstr>:
    3c10:	55                   	push   %ebp
    3c11:	89 e5                	mov    %esp,%ebp
    3c13:	83 ec 48             	sub    $0x48,%esp
    3c16:	c7 45 f4 00 00 00 00 	movl   $0x0,-0xc(%ebp)
    3c1d:	c6 45 ca ff          	movb   $0xff,-0x36(%ebp)
    3c21:	c6 45 cb ff          	movb   $0xff,-0x35(%ebp)
    3c25:	c7 45 f0 00 00 00 00 	movl   $0x0,-0x10(%ebp)
    3c2c:	c7 45 ec 00 00 00 00 	movl   $0x0,-0x14(%ebp)
    3c33:	c7 45 e8 00 00 00 00 	movl   $0x0,-0x18(%ebp)
    3c3a:	c7 45 c0 00 00 00 00 	movl   $0x0,-0x40(%ebp)
    3c41:	c7 45 c4 00 00 00 00 	movl   $0x0,-0x3c(%ebp)
    3c48:	e8 fc ff ff ff       	call   3c49 <ParseTestInstr+0x39>
    3c4d:	89 45 e4             	mov    %eax,-0x1c(%ebp)
    3c50:	e8 fc ff ff ff       	call   3c51 <ParseTestInstr+0x41>
    3c55:	e8 fc ff ff ff       	call   3c56 <ParseTestInstr+0x46>
    3c5a:	89 45 e0             	mov    %eax,-0x20(%ebp)
    3c5d:	8b 45 e4             	mov    -0x1c(%ebp),%eax
    3c60:	8b 40 08             	mov    0x8(%eax),%eax
    3c63:	89 45 dc             	mov    %eax,-0x24(%ebp)
    3c66:	8b 45 e0             	mov    -0x20(%ebp),%eax
    3c69:	8b 40 08             	mov    0x8(%eax),%eax
    3c6c:	89 45 d8             	mov    %eax,-0x28(%ebp)
    3c6f:	8b 45 e4             	mov    -0x1c(%ebp),%eax
    3c72:	8b 00                	mov    (%eax),%eax
    3c74:	89 45 c0             	mov    %eax,-0x40(%ebp)
    3c77:	c7 45 c4 03 00 00 00 	movl   $0x3,-0x3c(%ebp)
    3c7e:	8b 45 e0             	mov    -0x20(%ebp),%eax
    3c81:	8b 00                	mov    (%eax),%eax
    3c83:	89 45 d4             	mov    %eax,-0x2c(%ebp)
    3c86:	83 ec 0c             	sub    $0xc,%esp
    3c89:	6a 04                	push   $0x4
    3c8b:	e8 fc ff ff ff       	call   3c8c <ParseTestInstr+0x7c>
    3c90:	83 c4 10             	add    $0x10,%esp
    3c93:	89 45 f0             	mov    %eax,-0x10(%ebp)
    3c96:	8b 45 f0             	mov    -0x10(%ebp),%eax
    3c99:	0f b6 10             	movzbl (%eax),%edx
    3c9c:	83 ca c0             	or     $0xffffffc0,%edx
    3c9f:	88 10                	mov    %dl,(%eax)
    3ca1:	8b 45 f0             	mov    -0x10(%ebp),%eax
    3ca4:	0f b6 10             	movzbl (%eax),%edx
    3ca7:	83 e2 c7             	and    $0xffffffc7,%edx
    3caa:	88 10                	mov    %dl,(%eax)
    3cac:	8b 45 d4             	mov    -0x2c(%ebp),%eax
    3caf:	0f b6 00             	movzbl (%eax),%eax
    3cb2:	83 e0 07             	and    $0x7,%eax
    3cb5:	89 c2                	mov    %eax,%edx
    3cb7:	8b 45 f0             	mov    -0x10(%ebp),%eax
    3cba:	89 d1                	mov    %edx,%ecx
    3cbc:	83 e1 07             	and    $0x7,%ecx
    3cbf:	0f b6 10             	movzbl (%eax),%edx
    3cc2:	83 e2 f8             	and    $0xfffffff8,%edx
    3cc5:	09 ca                	or     %ecx,%edx
    3cc7:	88 10                	mov    %dl,(%eax)
    3cc9:	83 ec 04             	sub    $0x4,%esp
    3ccc:	ff 75 c4             	pushl  -0x3c(%ebp)
    3ccf:	ff 75 c0             	pushl  -0x40(%ebp)
    3cd2:	ff 75 e8             	pushl  -0x18(%ebp)
    3cd5:	ff 75 ec             	pushl  -0x14(%ebp)
    3cd8:	ff 75 f0             	pushl  -0x10(%ebp)
    3cdb:	0f b7 45 ca          	movzwl -0x36(%ebp),%eax
    3cdf:	50                   	push   %eax
    3ce0:	ff 75 f4             	pushl  -0xc(%ebp)
    3ce3:	e8 fc ff ff ff       	call   3ce4 <ParseTestInstr+0xd4>
    3ce8:	83 c4 20             	add    $0x20,%esp
    3ceb:	89 45 d0             	mov    %eax,-0x30(%ebp)
    3cee:	c7 45 cc 00 00 00 00 	movl   $0x0,-0x34(%ebp)
    3cf5:	8b 45 cc             	mov    -0x34(%ebp),%eax
    3cf8:	8d 50 01             	lea    0x1(%eax),%edx
    3cfb:	89 55 cc             	mov    %edx,-0x34(%ebp)
    3cfe:	8b 55 d0             	mov    -0x30(%ebp),%edx
    3d01:	8d 48 08             	lea    0x8(%eax),%ecx
    3d04:	8b 45 e4             	mov    -0x1c(%ebp),%eax
    3d07:	89 44 8a 04          	mov    %eax,0x4(%edx,%ecx,4)
    3d0b:	8b 45 cc             	mov    -0x34(%ebp),%eax
    3d0e:	8d 50 01             	lea    0x1(%eax),%edx
    3d11:	89 55 cc             	mov    %edx,-0x34(%ebp)
    3d14:	8b 55 d0             	mov    -0x30(%ebp),%edx
    3d17:	8d 48 08             	lea    0x8(%eax),%ecx
    3d1a:	8b 45 e0             	mov    -0x20(%ebp),%eax
    3d1d:	89 44 8a 04          	mov    %eax,0x4(%edx,%ecx,4)
    3d21:	8b 45 d0             	mov    -0x30(%ebp),%eax
    3d24:	c9                   	leave  
    3d25:	c3                   	ret    

00003d26 <ParseMovsblInstr>:
    3d26:	55                   	push   %ebp
    3d27:	89 e5                	mov    %esp,%ebp
    3d29:	83 ec 08             	sub    $0x8,%esp
    3d2c:	83 ec 04             	sub    $0x4,%esp
    3d2f:	6a 01                	push   $0x1
    3d31:	6a 01                	push   $0x1
    3d33:	ff 75 08             	pushl  0x8(%ebp)
    3d36:	e8 fc ff ff ff       	call   3d37 <ParseMovsblInstr+0x11>
    3d3b:	83 c4 10             	add    $0x10,%esp
    3d3e:	c9                   	leave  
    3d3f:	c3                   	ret    

00003d40 <ParseMovswlInstr>:
    3d40:	55                   	push   %ebp
    3d41:	89 e5                	mov    %esp,%ebp
    3d43:	83 ec 08             	sub    $0x8,%esp
    3d46:	83 ec 04             	sub    $0x4,%esp
    3d49:	6a 02                	push   $0x2
    3d4b:	6a 01                	push   $0x1
    3d4d:	ff 75 08             	pushl  0x8(%ebp)
    3d50:	e8 fc ff ff ff       	call   3d51 <ParseMovswlInstr+0x11>
    3d55:	83 c4 10             	add    $0x10,%esp
    3d58:	c9                   	leave  
    3d59:	c3                   	ret    

00003d5a <ParseMovzblInstr>:
    3d5a:	55                   	push   %ebp
    3d5b:	89 e5                	mov    %esp,%ebp
    3d5d:	83 ec 08             	sub    $0x8,%esp
    3d60:	83 ec 04             	sub    $0x4,%esp
    3d63:	6a 01                	push   $0x1
    3d65:	6a 00                	push   $0x0
    3d67:	ff 75 08             	pushl  0x8(%ebp)
    3d6a:	e8 fc ff ff ff       	call   3d6b <ParseMovzblInstr+0x11>
    3d6f:	83 c4 10             	add    $0x10,%esp
    3d72:	c9                   	leave  
    3d73:	c3                   	ret    

00003d74 <ParseMovzwlInstr>:
    3d74:	55                   	push   %ebp
    3d75:	89 e5                	mov    %esp,%ebp
    3d77:	83 ec 08             	sub    $0x8,%esp
    3d7a:	83 ec 04             	sub    $0x4,%esp
    3d7d:	6a 02                	push   $0x2
    3d7f:	6a 00                	push   $0x0
    3d81:	ff 75 08             	pushl  0x8(%ebp)
    3d84:	e8 fc ff ff ff       	call   3d85 <ParseMovzwlInstr+0x11>
    3d89:	83 c4 10             	add    $0x10,%esp
    3d8c:	c9                   	leave  
    3d8d:	c3                   	ret    

00003d8e <ParseLealInstr>:
    3d8e:	55                   	push   %ebp
    3d8f:	89 e5                	mov    %esp,%ebp
    3d91:	83 ec 48             	sub    $0x48,%esp
    3d94:	c7 45 f4 ff ff ff ff 	movl   $0xffffffff,-0xc(%ebp)
    3d9b:	c6 45 ca ff          	movb   $0xff,-0x36(%ebp)
    3d9f:	c6 45 cb ff          	movb   $0xff,-0x35(%ebp)
    3da3:	c7 45 f0 00 00 00 00 	movl   $0x0,-0x10(%ebp)
    3daa:	c7 45 ec 00 00 00 00 	movl   $0x0,-0x14(%ebp)
    3db1:	c7 45 e8 00 00 00 00 	movl   $0x0,-0x18(%ebp)
    3db8:	c7 45 c0 00 00 00 00 	movl   $0x0,-0x40(%ebp)
    3dbf:	c7 45 c4 00 00 00 00 	movl   $0x0,-0x3c(%ebp)
    3dc6:	83 ec 0c             	sub    $0xc,%esp
    3dc9:	6a 04                	push   $0x4
    3dcb:	e8 fc ff ff ff       	call   3dcc <ParseLealInstr+0x3e>
    3dd0:	83 c4 10             	add    $0x10,%esp
    3dd3:	89 45 f0             	mov    %eax,-0x10(%ebp)
    3dd6:	e8 fc ff ff ff       	call   3dd7 <ParseLealInstr+0x49>
    3ddb:	89 45 e4             	mov    %eax,-0x1c(%ebp)
    3dde:	8b 45 e4             	mov    -0x1c(%ebp),%eax
    3de1:	8b 40 08             	mov    0x8(%eax),%eax
    3de4:	89 45 e0             	mov    %eax,-0x20(%ebp)
    3de7:	c6 45 ca 8d          	movb   $0x8d,-0x36(%ebp)
    3deb:	83 ec 0c             	sub    $0xc,%esp
    3dee:	ff 75 e4             	pushl  -0x1c(%ebp)
    3df1:	e8 fc ff ff ff       	call   3df2 <ParseLealInstr+0x64>
    3df6:	83 c4 10             	add    $0x10,%esp
    3df9:	89 45 dc             	mov    %eax,-0x24(%ebp)
    3dfc:	8b 45 dc             	mov    -0x24(%ebp),%eax
    3dff:	8b 40 08             	mov    0x8(%eax),%eax
    3e02:	83 e0 03             	and    $0x3,%eax
    3e05:	8b 55 f0             	mov    -0x10(%ebp),%edx
    3e08:	c1 e0 06             	shl    $0x6,%eax
    3e0b:	89 c1                	mov    %eax,%ecx
    3e0d:	0f b6 02             	movzbl (%edx),%eax
    3e10:	83 e0 3f             	and    $0x3f,%eax
    3e13:	09 c8                	or     %ecx,%eax
    3e15:	88 02                	mov    %al,(%edx)
    3e17:	8b 45 dc             	mov    -0x24(%ebp),%eax
    3e1a:	8b 40 0c             	mov    0xc(%eax),%eax
    3e1d:	83 e0 07             	and    $0x7,%eax
    3e20:	8b 55 f0             	mov    -0x10(%ebp),%edx
    3e23:	83 e0 07             	and    $0x7,%eax
    3e26:	89 c1                	mov    %eax,%ecx
    3e28:	0f b6 02             	movzbl (%edx),%eax
    3e2b:	83 e0 f8             	and    $0xfffffff8,%eax
    3e2e:	09 c8                	or     %ecx,%eax
    3e30:	88 02                	mov    %al,(%edx)
    3e32:	83 ec 0c             	sub    $0xc,%esp
    3e35:	6a 0c                	push   $0xc
    3e37:	e8 fc ff ff ff       	call   3e38 <ParseLealInstr+0xaa>
    3e3c:	83 c4 10             	add    $0x10,%esp
    3e3f:	89 45 e8             	mov    %eax,-0x18(%ebp)
    3e42:	8b 45 dc             	mov    -0x24(%ebp),%eax
    3e45:	8b 00                	mov    (%eax),%eax
    3e47:	89 45 e8             	mov    %eax,-0x18(%ebp)
    3e4a:	8b 45 dc             	mov    -0x24(%ebp),%eax
    3e4d:	8b 40 04             	mov    0x4(%eax),%eax
    3e50:	89 45 ec             	mov    %eax,-0x14(%ebp)
    3e53:	e8 fc ff ff ff       	call   3e54 <ParseLealInstr+0xc6>
    3e58:	e8 fc ff ff ff       	call   3e59 <ParseLealInstr+0xcb>
    3e5d:	89 45 d8             	mov    %eax,-0x28(%ebp)
    3e60:	8b 45 d8             	mov    -0x28(%ebp),%eax
    3e63:	8b 00                	mov    (%eax),%eax
    3e65:	89 45 d4             	mov    %eax,-0x2c(%ebp)
    3e68:	8b 45 d4             	mov    -0x2c(%ebp),%eax
    3e6b:	0f b6 00             	movzbl (%eax),%eax
    3e6e:	83 e0 07             	and    $0x7,%eax
    3e71:	89 c2                	mov    %eax,%edx
    3e73:	8b 45 f0             	mov    -0x10(%ebp),%eax
    3e76:	83 e2 07             	and    $0x7,%edx
    3e79:	8d 0c d5 00 00 00 00 	lea    0x0(,%edx,8),%ecx
    3e80:	0f b6 10             	movzbl (%eax),%edx
    3e83:	83 e2 c7             	and    $0xffffffc7,%edx
    3e86:	09 ca                	or     %ecx,%edx
    3e88:	88 10                	mov    %dl,(%eax)
    3e8a:	83 ec 04             	sub    $0x4,%esp
    3e8d:	ff 75 c4             	pushl  -0x3c(%ebp)
    3e90:	ff 75 c0             	pushl  -0x40(%ebp)
    3e93:	ff 75 e8             	pushl  -0x18(%ebp)
    3e96:	ff 75 ec             	pushl  -0x14(%ebp)
    3e99:	ff 75 f0             	pushl  -0x10(%ebp)
    3e9c:	0f b7 45 ca          	movzwl -0x36(%ebp),%eax
    3ea0:	50                   	push   %eax
    3ea1:	ff 75 f4             	pushl  -0xc(%ebp)
    3ea4:	e8 fc ff ff ff       	call   3ea5 <ParseLealInstr+0x117>
    3ea9:	83 c4 20             	add    $0x20,%esp
    3eac:	89 45 d0             	mov    %eax,-0x30(%ebp)
    3eaf:	c7 45 cc 00 00 00 00 	movl   $0x0,-0x34(%ebp)
    3eb6:	8b 45 cc             	mov    -0x34(%ebp),%eax
    3eb9:	8d 50 01             	lea    0x1(%eax),%edx
    3ebc:	89 55 cc             	mov    %edx,-0x34(%ebp)
    3ebf:	8b 55 d0             	mov    -0x30(%ebp),%edx
    3ec2:	8d 48 08             	lea    0x8(%eax),%ecx
    3ec5:	8b 45 e4             	mov    -0x1c(%ebp),%eax
    3ec8:	89 44 8a 04          	mov    %eax,0x4(%edx,%ecx,4)
    3ecc:	8b 45 cc             	mov    -0x34(%ebp),%eax
    3ecf:	8d 50 01             	lea    0x1(%eax),%edx
    3ed2:	89 55 cc             	mov    %edx,-0x34(%ebp)
    3ed5:	8b 55 d0             	mov    -0x30(%ebp),%edx
    3ed8:	8d 48 08             	lea    0x8(%eax),%ecx
    3edb:	8b 45 d8             	mov    -0x28(%ebp),%eax
    3ede:	89 44 8a 04          	mov    %eax,0x4(%edx,%ecx,4)
    3ee2:	8b 45 d0             	mov    -0x30(%ebp),%eax
    3ee5:	c9                   	leave  
    3ee6:	c3                   	ret    
