
ch.o:     file format elf32-i386


Disassembly of section .text:

00000000 <main>:
   0:	8d 4c 24 04          	lea    0x4(%esp),%ecx
   4:	83 e4 f0             	and    $0xfffffff0,%esp
   7:	ff 71 fc             	pushl  -0x4(%ecx)
   a:	55                   	push   %ebp
   b:	89 e5                	mov    %esp,%ebp
   d:	57                   	push   %edi
   e:	51                   	push   %ecx
   f:	81 ec 30 04 00 00    	sub    $0x430,%esp
  15:	83 ec 08             	sub    $0x8,%esp
  18:	6a 09                	push   $0x9
  1a:	6a 05                	push   $0x5
  1c:	e8 fc ff ff ff       	call   1d <main+0x1d>
  21:	83 c4 10             	add    $0x10,%esp
  24:	89 45 ec             	mov    %eax,-0x14(%ebp)
  27:	c6 45 eb 44          	movb   $0x44,-0x15(%ebp)
  2b:	a1 00 00 00 00       	mov    0x0,%eax
  30:	83 ec 08             	sub    $0x8,%esp
  33:	50                   	push   %eax
  34:	68 29 00 00 00       	push   $0x29
  39:	e8 fc ff ff ff       	call   3a <main+0x3a>
  3e:	83 c4 10             	add    $0x10,%esp
  41:	a1 00 00 00 00       	mov    0x0,%eax
  46:	83 ec 0c             	sub    $0xc,%esp
  49:	50                   	push   %eax
  4a:	e8 fc ff ff ff       	call   4b <main+0x4b>
  4f:	83 c4 10             	add    $0x10,%esp
  52:	a1 00 00 00 00       	mov    0x0,%eax
  57:	83 ec 0c             	sub    $0xc,%esp
  5a:	50                   	push   %eax
  5b:	e8 fc ff ff ff       	call   5c <main+0x5c>
  60:	83 c4 10             	add    $0x10,%esp
  63:	c7 45 e4 2c 00 00 00 	movl   $0x2c,-0x1c(%ebp)
  6a:	83 ec 0c             	sub    $0xc,%esp
  6d:	ff 75 e4             	pushl  -0x1c(%ebp)
  70:	e8 fc ff ff ff       	call   71 <main+0x71>
  75:	83 c4 10             	add    $0x10,%esp
  78:	89 45 e0             	mov    %eax,-0x20(%ebp)
  7b:	a1 00 00 00 00       	mov    0x0,%eax
  80:	83 ec 0c             	sub    $0xc,%esp
  83:	50                   	push   %eax
  84:	e8 fc ff ff ff       	call   85 <main+0x85>
  89:	83 c4 10             	add    $0x10,%esp
  8c:	89 45 dc             	mov    %eax,-0x24(%ebp)
  8f:	a1 00 00 00 00       	mov    0x0,%eax
  94:	89 45 d8             	mov    %eax,-0x28(%ebp)
  97:	c7 45 f4 00 00 00 00 	movl   $0x0,-0xc(%ebp)
  9e:	eb 27                	jmp    c7 <main+0xc7>
  a0:	8b 55 f4             	mov    -0xc(%ebp),%edx
  a3:	8b 45 e4             	mov    -0x1c(%ebp),%eax
  a6:	01 d0                	add    %edx,%eax
  a8:	0f b6 00             	movzbl (%eax),%eax
  ab:	88 45 d7             	mov    %al,-0x29(%ebp)
  ae:	0f be 45 d7          	movsbl -0x29(%ebp),%eax
  b2:	83 ec 08             	sub    $0x8,%esp
  b5:	50                   	push   %eax
  b6:	68 42 00 00 00       	push   $0x42
  bb:	e8 fc ff ff ff       	call   bc <main+0xbc>
  c0:	83 c4 10             	add    $0x10,%esp
  c3:	83 45 f4 01          	addl   $0x1,-0xc(%ebp)
  c7:	8b 45 f4             	mov    -0xc(%ebp),%eax
  ca:	3b 45 e0             	cmp    -0x20(%ebp),%eax
  cd:	7c d1                	jl     a0 <main+0xa0>
  cf:	83 ec 0c             	sub    $0xc,%esp
  d2:	68 4b 00 00 00       	push   $0x4b
  d7:	e8 fc ff ff ff       	call   d8 <main+0xd8>
  dc:	83 c4 10             	add    $0x10,%esp
  df:	c7 45 d0 00 00 00 00 	movl   $0x0,-0x30(%ebp)
  e6:	8d 95 d4 fb ff ff    	lea    -0x42c(%ebp),%edx
  ec:	b8 00 00 00 00       	mov    $0x0,%eax
  f1:	b9 ff 00 00 00       	mov    $0xff,%ecx
  f6:	89 d7                	mov    %edx,%edi
  f8:	f3 ab                	rep stos %eax,%es:(%edi)
  fa:	c7 45 f0 00 00 00 00 	movl   $0x0,-0x10(%ebp)
 101:	8b 55 f0             	mov    -0x10(%ebp),%edx
 104:	8b 45 e4             	mov    -0x1c(%ebp),%eax
 107:	01 d0                	add    %edx,%eax
 109:	0f b6 00             	movzbl (%eax),%eax
 10c:	84 c0                	test   %al,%al
 10e:	74 40                	je     150 <main+0x150>
 110:	8b 55 f0             	mov    -0x10(%ebp),%edx
 113:	8b 45 e4             	mov    -0x1c(%ebp),%eax
 116:	01 d0                	add    %edx,%eax
 118:	0f b6 00             	movzbl (%eax),%eax
 11b:	0f be d0             	movsbl %al,%edx
 11e:	8b 45 f0             	mov    -0x10(%ebp),%eax
 121:	89 94 85 d4 fb ff ff 	mov    %edx,-0x42c(%ebp,%eax,4)
 128:	8b 55 f0             	mov    -0x10(%ebp),%edx
 12b:	8b 45 e4             	mov    -0x1c(%ebp),%eax
 12e:	01 d0                	add    %edx,%eax
 130:	0f b6 00             	movzbl (%eax),%eax
 133:	0f be c0             	movsbl %al,%eax
 136:	83 ec 04             	sub    $0x4,%esp
 139:	50                   	push   %eax
 13a:	ff 75 f0             	pushl  -0x10(%ebp)
 13d:	68 62 00 00 00       	push   $0x62
 142:	e8 fc ff ff ff       	call   143 <main+0x143>
 147:	83 c4 10             	add    $0x10,%esp
 14a:	83 45 f0 01          	addl   $0x1,-0x10(%ebp)
 14e:	eb b1                	jmp    101 <main+0x101>
 150:	90                   	nop
 151:	b8 00 00 00 00       	mov    $0x0,%eax
 156:	8d 65 f8             	lea    -0x8(%ebp),%esp
 159:	59                   	pop    %ecx
 15a:	5f                   	pop    %edi
 15b:	5d                   	pop    %ebp
 15c:	8d 61 fc             	lea    -0x4(%ecx),%esp
 15f:	c3                   	ret    

00000160 <sum>:
 160:	55                   	push   %ebp
 161:	89 e5                	mov    %esp,%ebp
 163:	8b 55 08             	mov    0x8(%ebp),%edx
 166:	8b 45 0c             	mov    0xc(%ebp),%eax
 169:	01 d0                	add    %edx,%eax
 16b:	5d                   	pop    %ebp
 16c:	c3                   	ret    
